(dp1
S'NGC 6656'
p2
ccopy_reg
_reconstructor
p3
(c__main__
Cluster
p4
c__builtin__
object
p5
NtRp6
(dp7
S'v_t'
p8
F5.0999999999999996
sS'v_r'
p9
F-146.30000000000001
sS'sp_c'
p10
F1.3799999999999999
sS'spt'
p11
S'F5'
p12
sS'rho_0'
p13
F3.6299999999999999
sS'lg_th'
p14
F9.2300000000000004
sS'dist_from_sun'
p15
F3.2000000000000002
sS'sp_r_h'
p16
F3.3599999999999999
sS'lg_tc'
p17
F8.5299999999999994
sS'ph_u_b'
p18
F0.28000000000000003
sS'sp_r_c'
p19
F1.3300000000000001
sS'ph_b_v'
p20
F0.97999999999999998
sS'sig_v'
p21
F7.7999999999999998
sS'gid'
p22
g2
sS'ra'
p23
cnumpy.core.multiarray
scalar
p24
(cnumpy
dtype
p25
(S'f8'
I0
I1
tRp26
(I3
S'<'
NNNI-1
I-1
I0
tbS'\x94\xf6\x06_\x98qq@'
tRp27
sS'latitude'
p28
F-7.5499999999999998
sS'app_vd_mod'
p29
F13.6
sS'ph_v_r'
p30
F0.68000000000000005
sS'sig_err'
p31
F0.29999999999999999
sS'gal_dist_comp'
p32
(lp33
F3.2000000000000002
aF0.59999999999999998
aF-0.40000000000000002
asS'dist_from_gal_cen'
p34
F4.9000000000000004
sS'metallicity'
p35
F-1.7
sS'w_mean_met'
p36
F8
sS'ellipticity'
p37
F0.14000000000000001
sS'eb_v'
p38
F0.34000000000000002
sS'c_LSR'
p39
F-136.59999999999999
sS'ph_v_i'
p40
F1.4199999999999999
sS'm_v_t'
p41
F-8.5
sS'dec'
p42
g24
(g26
S'\xbak\t\xf9\xa0\xe77\xc0'
tRp43
sS'sp_rho_0'
p44
NsS'name'
p45
S'M 22'
p46
sS'sp_mu_V'
p47
F17.420000000000002
sS'v_r_err'
p48
F0.20000000000000001
sS'longitude'
p49
F9.8900000000000006
sS'sp_lg_tc'
p50
NsS'v_hb'
p51
F14.15
sS'sp_lg_th'
p52
NsbsS'NGC 6342'
p53
g3
(g4
g5
NtRp54
(dp55
g8
F9.6600000000000001
sg9
F115.7
sg10
F2.5
sg11
S'G3'
p56
sg13
F4.9699999999999998
sg14
F8.5099999999999998
sg15
F8.5
sg16
F0.72999999999999998
sg17
F6.1600000000000001
sg18
F0.77000000000000002
sg19
Nsg20
F1.26
sg21
F5.2000000000000002
sg22
g53
sg23
g24
(g26
S'\xe9&1\x08\xacDp@'
tRp57
sg28
F9.7200000000000006
sg29
F16.079999999999998
sg30
F0.80000000000000004
sg31
F2.1000000000000001
sg32
(lp58
F8.4000000000000004
aF0.69999999999999996
aF1.3999999999999999
asg34
F1.7
sg35
F-0.55000000000000004
sg36
F5
sg37
Nsg38
F0.46000000000000002
sg39
F126.3
sg40
F1.5700000000000001
sg41
F-6.4199999999999999
sg42
g24
(g26
S'\x9f\xab\xad\xd8_\x963\xc0'
tRp59
sg44
Nsg45
Nsg47
F16.969999999999999
sg48
F1.3999999999999999
sg49
F4.9000000000000004
sg50
Nsg51
F16.800000000000001
sg52
NsbsS'NGC 6652'
p60
g3
(g4
g5
NtRp61
(dp62
g8
F8.6199999999999992
sg9
F-111.7
sg10
F1.8
sg11
S'G3'
p63
sg13
F4.4800000000000004
sg14
F8.3900000000000006
sg15
F10
sg16
F0.47999999999999998
sg17
F7.0499999999999998
sg18
F0.37
sg19
F0.10000000000000001
sg20
F0.93999999999999995
sg21
Nsg22
g60
sg23
g24
(g26
S'\x83/L\xa6\noq@'
tRp64
sg28
F-11.380000000000001
sg29
F15.279999999999999
sg30
F0.52000000000000002
sg31
Nsg32
(lp65
F9.8000000000000007
aF0.29999999999999999
aF-2
asg34
F2.7000000000000002
sg35
F-0.81000000000000005
sg36
F4
sg37
F0.20000000000000001
sg38
F0.089999999999999997
sg39
F-104.3
sg40
F1.0800000000000001
sg41
F-6.6600000000000001
sg42
g24
(g26
S'\xd7\x12\xf2A\xcf~@\xc0'
tRp66
sg44
Nsg45
Nsg47
F16.100000000000001
sg48
F5.7999999999999998
sg49
F1.53
sg50
Nsg51
F15.960000000000001
sg52
NsbsS'NGC 6717'
p67
g3
(g4
g5
NtRp68
(dp69
g8
F9.2799999999999994
sg9
F22.800000000000001
sg10
F2.0699999999999998
sg11
S'F6'
p70
sg13
F4.5800000000000001
sg14
F8.2200000000000006
sg15
F7.0999999999999996
sg16
F0.68000000000000005
sg17
F6.5199999999999996
sg18
F0.34999999999999998
sg19
F0.080000000000000002
sg20
F1
sg21
Nsg22
g67
sg23
g24
(g26
S'\xbf}\x1d8g\xbcq@'
tRp71
sg28
F-10.9
sg29
F14.94
sg30
F0.65000000000000002
sg31
Nsg32
(lp72
F6.7999999999999998
aF1.6000000000000001
aF-1.3
asg34
F2.3999999999999999
sg35
F-1.26
sg36
F3
sg37
F0.01
sg38
F0.22
sg39
F32.700000000000003
sg40
F1.3700000000000001
sg41
F-5.6600000000000001
sg42
g24
(g26
S'\xdd$\x06\x81\x95\xb36\xc0'
tRp73
sg44
Nsg45
S'Pal 9'
p74
sg47
F16.77
sg48
F3.3999999999999999
sg49
F12.880000000000001
sg50
Nsg51
F15.550000000000001
sg52
NsbsS'NGC 6715'
p75
g3
(g4
g5
NtRp76
(dp77
g8
F7.5999999999999996
sg9
F141.30000000000001
sg10
F2.04
sg11
S'F7'
p78
sg13
F4.6900000000000004
sg14
F9.9299999999999997
sg15
F26.5
sg16
F0.81999999999999995
sg17
F8.2400000000000002
sg18
F0.23999999999999999
sg19
F0.089999999999999997
sg20
F0.84999999999999998
sg21
F10.5
sg22
g75
sg23
g24
(g26
S'\xa1\xd64\xef8\xbcq@'
tRp79
sg28
F-14.09
sg29
F17.579999999999998
sg30
F0.53000000000000003
sg31
F0.29999999999999999
sg32
(lp80
F25.600000000000001
aF2.5
aF-6.5
asg34
F18.899999999999999
sg35
F-1.49
sg36
F7
sg37
Nsg38
F0.14999999999999999
sg39
F149.19999999999999
sg40
F1.1000000000000001
sg41
F-9.9800000000000004
sg42
g24
(g26
S'\xb4Y\xf5\xb9\xdaz>\xc0'
tRp81
sg44
Nsg45
S'M 54'
p82
sg47
F14.779999999999999
sg48
F0.29999999999999999
sg49
F5.6100000000000003
sg50
Nsg51
F18.16
sg52
NsbsS'NGC 6712'
p83
g3
(g4
g5
NtRp84
(dp85
g8
F8.0999999999999996
sg9
F-107.59999999999999
sg10
F1.05
sg11
S'F9'
p86
sg13
F3.1800000000000002
sg14
F8.9499999999999993
sg15
F6.9000000000000004
sg16
F1.3300000000000001
sg17
F8.5999999999999996
sg18
F0.53000000000000003
sg19
F0.76000000000000001
sg20
F1.1699999999999999
sg21
F4.2999999999999998
sg22
g83
sg23
g24
(g26
S'\x93\xa9\x82QI\xb4q@'
tRp87
sg28
F-4.3200000000000003
sg29
F15.6
sg30
F0.71999999999999997
sg31
F0.40000000000000002
sg32
(lp88
F6.2999999999999998
aF3
aF-0.5
asg34
F3.5
sg35
F-1.02
sg36
F4
sg37
F0.11
sg38
F0.45000000000000001
sg39
F-94.700000000000003
sg40
F1.5700000000000001
sg41
F-7.5
sg42
g24
(g26
S'Dio\xf0\x85i!\xc0'
tRp89
sg44
Nsg45
Nsg47
F18.739999999999998
sg48
F0.5
sg49
F25.350000000000001
sg50
Nsg51
F16.25
sg52
NsbsS'UKS 1'
p90
g3
(g4
g5
NtRp91
(dp92
g8
F17.289999999999999
sg9
F57
sg10
F2.1000000000000001
sg11
Nsg13
F4.4100000000000001
sg14
F0
sg15
F7.7999999999999998
sg16
Nsg17
F7.2599999999999998
sg18
Nsg19
F0.14999999999999999
sg20
Nsg21
Nsg22
g90
sg23
g24
(g26
S'0*\xa9\x13\xd0\xc9p@'
tRp93
sg28
F0.76000000000000001
sg29
F24.199999999999999
sg30
Nsg31
Nsg32
(lp94
F7.7999999999999998
aF0.69999999999999996
aF0.10000000000000001
asg34
F0.69999999999999996
sg35
F-0.64000000000000001
sg36
F2
sg37
Nsg38
F3.1400000000000001
sg39
F66.700000000000003
sg40
Nsg41
F-6.9100000000000001
sg42
g24
(g26
S'\xda\x1b|a2%8\xc0'
tRp95
sg44
Nsg45
Nsg47
F25.52
sg48
F6
sg49
F5.1299999999999999
sg50
Nsg51
F24.899999999999999
sg52
NsbsS'NGC 5897'
p96
g3
(g4
g5
NtRp97
(dp98
g8
F8.5299999999999994
sg9
F101.5
sg10
F0.85999999999999999
sg11
S'F7'
p99
sg13
F1.53
sg14
F9.5700000000000003
sg15
F12.5
sg16
F2.0600000000000001
sg17
F9.3300000000000001
sg18
F0.080000000000000002
sg19
F1.3999999999999999
sg20
F0.73999999999999999
sg21
Nsg22
g96
sg23
g24
(g26
S'~\x1d8gD\xabl@'
tRp100
sg28
F30.289999999999999
sg29
F15.76
sg30
F0.5
sg31
Nsg32
(lp101
F10.300000000000001
aF-3.2000000000000002
aF6.2999999999999998
asg34
F7.4000000000000004
sg35
F-1.8999999999999999
sg36
F3
sg37
F0.080000000000000002
sg38
F0.089999999999999997
sg39
F108.40000000000001
sg40
F1.04
sg41
F-7.2300000000000004
sg42
g24
(g26
S'\x18&S\x05\xa3\x025\xc0'
tRp102
sg44
Nsg45
Nsg47
F20.530000000000001
sg48
F1
sg49
F342.94999999999999
sg50
Nsg51
F16.27
sg52
NsbsS'NGC 6093'
p103
g3
(g4
g5
NtRp104
(dp105
g8
F7.3300000000000001
sg9
F8.0999999999999996
sg10
F1.6799999999999999
sg11
S'F6'
p106
sg13
F4.79
sg14
F8.8000000000000007
sg15
F10
sg16
F0.60999999999999999
sg17
F7.7800000000000002
sg18
F0.20999999999999999
sg19
F0.14999999999999999
sg20
F0.83999999999999997
sg21
F12.4
sg22
g103
sg23
g24
(g26
S'\xb8\x1e\x85\xebQ\x88n@'
tRp107
sg28
F19.460000000000001
sg29
F15.56
sg30
F0.56000000000000005
sg31
F0.59999999999999998
sg32
(lp108
F9.4000000000000004
aF-1.2
aF3.2999999999999998
asg34
F3.7999999999999998
sg35
F-1.75
sg36
F6
sg37
F0
sg38
F0.17999999999999999
sg39
F16.699999999999999
sg40
F1.1100000000000001
sg41
F-8.2300000000000004
sg42
g24
(g26
S"'\xa0\x89\xb0\xe1\xf96\xc0"
tRp109
sg44
Nsg45
S'M 80'
p110
sg47
F15.109999999999999
sg48
F1.5
sg49
F352.67000000000002
sg50
Nsg51
F16.100000000000001
sg52
NsbsS'NGC 6540'
p111
g3
(g4
g5
NtRp112
(dp113
g8
F9.3000000000000007
sg9
F-17.699999999999999
sg10
F2.5
sg11
Nsg13
F5.8499999999999996
sg14
F0
sg15
F5.2999999999999998
sg16
Nsg17
F5.4000000000000004
sg18
Nsg19
F0.029999999999999999
sg20
Nsg21
Nsg22
g111
sg23
g24
(g26
S'&S\x05\xa3\x92\xf8p@'
tRp114
sg28
F-3.3100000000000001
sg29
F15.65
sg30
Nsg31
Nsg32
(lp115
F5.2000000000000002
aF0.29999999999999999
aF-0.29999999999999999
asg34
F2.7999999999999998
sg35
F-1.3500000000000001
sg36
F2
sg37
Nsg38
F0.66000000000000003
sg39
F-8.8000000000000007
sg40
Nsg41
F-6.3499999999999996
sg42
g24
(g26
S'\xf9\xa0g\xb3\xea\xc3;\xc0'
tRp116
sg44
Nsg45
S'Djorg 3'
p117
sg47
F16.399999999999999
sg48
F1.3999999999999999
sg49
F3.29
sg50
Nsg51
F16.25
sg52
NsbsS'NGC 6528'
p118
g3
(g4
g5
NtRp119
(dp120
g8
F9.5999999999999996
sg9
F206.59999999999999
sg10
F1.5
sg11
S'G3'
p121
sg13
F4.7699999999999996
sg14
F8.0600000000000005
sg15
F7.9000000000000004
sg16
F0.38
sg17
F7.2800000000000002
sg18
F1.0900000000000001
sg19
F0.13
sg20
F1.53
sg21
Nsg22
g118
sg23
g24
(g26
S'\x01M\x84\rO\xf3p@'
tRp122
sg28
F-4.1699999999999999
sg29
F16.170000000000002
sg30
F0.90000000000000002
sg31
Nsg32
(lp123
F7.9000000000000004
aF0.20000000000000001
aF-0.59999999999999998
asg34
F0.59999999999999998
sg35
F-0.11
sg36
F7
sg37
F0.11
sg38
F0.54000000000000004
sg39
F214.90000000000001
sg40
F1.74
sg41
F-6.5700000000000003
sg42
g24
(g26
S'\xca\xc3B\xadi\x0e>\xc0'
tRp124
sg44
Nsg45
Nsg47
F16.73
sg48
F1.3999999999999999
sg49
F1.1399999999999999
sg50
Nsg51
F16.949999999999999
sg52
NsbsS'NGC 6325'
p125
g3
(g4
g5
NtRp126
(dp127
g8
F10.33
sg9
F29.800000000000001
sg10
F2.5
sg11
S'G0'
p128
sg13
F5.5199999999999996
sg14
F8.4499999999999993
sg15
F7.7999999999999998
sg16
F0.63
sg17
F5.7300000000000004
sg18
F0.84999999999999998
sg19
Nsg20
F1.6599999999999999
sg21
F5.9000000000000004
sg22
g125
sg23
g24
(g26
S'\xc5\xfe\xb2{\xf27p@'
tRp129
sg28
F8
sg29
F17.289999999999999
sg30
Nsg31
F1.3
sg32
(lp130
F7.7000000000000002
aF0.10000000000000001
aF1.1000000000000001
asg34
F1.1000000000000001
sg35
F-1.25
sg36
F4
sg37
F0.12
sg38
F0.91000000000000003
sg39
F39.299999999999997
sg40
F2.1499999999999999
sg41
F-6.96
sg42
g24
(g26
S'j\xbct\x93\x18\xc47\xc0'
tRp131
sg44
Nsg45
Nsg47
F17.559999999999999
sg48
F1.8
sg49
F0.96999999999999997
sg50
Nsg51
F17.899999999999999
sg52
NsbsS'NGC 6522'
p132
g3
(g4
g5
NtRp133
(dp134
g8
F8.2699999999999996
sg9
F-21.100000000000001
sg10
F2.5
sg11
S'F7'
p135
sg13
F5.4800000000000004
sg14
F8.8599999999999994
sg15
F7.7000000000000002
sg16
F1
sg17
F6.3799999999999999
sg18
F0.65000000000000002
sg19
Nsg20
F1.21
sg21
F6.7000000000000002
sg22
g132
sg23
g24
(g26
S'*\xa9\x13\xd0D\xeep@'
tRp136
sg28
F-3.9300000000000002
sg29
F15.92
sg30
F0.76000000000000001
sg31
F0.69999999999999996
sg32
(lp137
F7.7000000000000002
aF0.10000000000000001
aF-0.5
asg34
F0.59999999999999998
sg35
F-1.3400000000000001
sg36
F4
sg37
Nsg38
F0.47999999999999998
sg39
F-12.9
sg40
F1.51
sg41
F-7.6500000000000004
sg42
g24
(g26
S'b\x10X9\xb4\x08>\xc0'
tRp138
sg44
Nsg45
Nsg47
F15.75
sg48
F3.3999999999999999
sg49
F1.02
sg50
Nsg51
F16.52
sg52
NsbsS'NGC 5053'
p139
g3
(g4
g5
NtRp140
(dp141
g8
F9.4700000000000006
sg9
F44
sg10
F0.73999999999999999
sg11
Nsg13
F0.54000000000000004
sg14
F9.8699999999999992
sg15
F17.399999999999999
sg16
F2.6099999999999999
sg17
F9.8100000000000005
sg18
F0.029999999999999999
sg19
F2.0800000000000001
sg20
F0.65000000000000002
sg21
F1.3999999999999999
sg22
g139
sg23
g24
(g26
S'\xfd\xf6u\xe0\x9c\xe3h@'
tRp142
sg28
F78.950000000000003
sg29
F16.23
sg30
Nsg31
F0.20000000000000001
sg32
(lp143
F3
aF-1.3999999999999999
aF17.100000000000001
asg34
F17.800000000000001
sg35
F-2.27
sg36
F4
sg37
F0.20999999999999999
sg38
F0.01
sg39
F50.899999999999999
sg40
F0.90000000000000002
sg41
F-6.7599999999999998
sg42
g24
(g26
S'\xc1\xa8\xa4N@\xb31@'
tRp144
sg44
Nsg45
Nsg47
F22.030000000000001
sg48
F0.40000000000000002
sg49
F335.69999999999999
sg50
Nsg51
F16.690000000000001
sg52
NsbsS'NGC 6402'
p145
g3
(g4
g5
NtRp146
(dp147
g8
F7.5899999999999999
sg9
F-66.099999999999994
sg10
F0.98999999999999999
sg11
S'F4'
p148
sg13
F3.3599999999999999
sg14
F9.3900000000000006
sg15
F9.3000000000000007
sg16
F1.3
sg17
F9.0600000000000005
sg18
F0.56999999999999995
sg19
F0.79000000000000004
sg20
F1.25
sg21
Nsg22
g145
sg23
g24
(g26
S'\x18\x95\xd4\th\x86p@'
tRp149
sg28
F14.81
sg29
F16.690000000000001
sg30
F0.81000000000000005
sg31
Nsg32
(lp150
F8.3000000000000007
aF3.2999999999999998
aF2.3999999999999999
asg34
F4
sg35
F-1.28
sg36
F1
sg37
F0.11
sg38
F0.59999999999999998
sg39
F-52.100000000000001
sg40
F1.6399999999999999
sg41
F-9.0999999999999996
sg42
g24
(g26
S'\xf2\xb0Pk\x9a\xf7\t\xc0'
tRp151
sg44
Nsg45
S'M 14'
p152
sg47
F18.41
sg48
F1.8
sg49
F21.32
sg50
Nsg51
F17.300000000000001
sg52
NsbsS'NGC 6401'
p153
g3
(g4
g5
NtRp154
(dp155
g8
F9.4499999999999993
sg9
F-65
sg10
F1.6899999999999999
sg11
S'F9'
p156
sg13
F3.79
sg14
F9.5299999999999994
sg15
F10.6
sg16
F1.9099999999999999
sg17
F7.9699999999999998
sg18
F0.93000000000000005
sg19
F0.25
sg20
F1.5800000000000001
sg21
Nsg22
g153
sg23
g24
(g26
S'=\n\xd7\xa3p\x8ap@'
tRp157
sg28
F3.98
sg29
F17.350000000000001
sg30
F1.02
sg31
Nsg32
(lp158
F10.5
aF0.59999999999999998
aF0.69999999999999996
asg34
F2.7000000000000002
sg35
F-1.02
sg36
F5
sg37
F0.14999999999999999
sg38
F0.71999999999999997
sg39
F-55.299999999999997
sg40
F2.0099999999999998
sg41
F-7.9000000000000004
sg42
g24
(g26
S'F\xb6\xf3\xfd\xd4\xe87\xc0'
tRp159
sg44
Nsg45
Nsg47
F18.699999999999999
sg48
F8.5999999999999996
sg49
F3.4500000000000002
sg50
Nsg51
F18
sg52
NsbsS'Lynga 7'
p160
g3
(g4
g5
NtRp161
(dp162
g8
F10.18
sg9
F8
sg10
F0.94999999999999996
sg11
Nsg13
Nsg14
F8.8300000000000001
sg15
F8
sg16
F1.2
sg17
Nsg18
Nsg19
F0.90000000000000002
sg20
Nsg21
Nsg22
g160
sg23
g24
(g26
S'\xc6\xdc\xb5\x84|Xn@'
tRp163
sg28
F-2.7999999999999998
sg29
F16.780000000000001
sg30
Nsg31
Nsg32
(lp164
F6.7999999999999998
aF-4.0999999999999996
aF-0.40000000000000002
asg34
F4.2999999999999998
sg35
F-1.01
sg36
F3
sg37
Nsg38
F0.72999999999999998
sg39
F8
sg40
Nsg41
F-6.5999999999999996
sg42
g24
(g26
S'\x9bU\x9f\xab\xad\xa8K\xc0'
tRp165
sg44
Nsg45
S'BH184'
p166
sg47
Nsg48
F5
sg49
F328.76999999999998
sg50
Nsg51
F17.43
sg52
NsbsS'NGC 5694'
p167
g3
(g4
g5
NtRp168
(dp169
g8
F10.17
sg9
F-140.30000000000001
sg10
F1.8899999999999999
sg11
S'F4'
p170
sg13
F3.9500000000000002
sg14
F9.2699999999999996
sg15
F35
sg16
F0.40000000000000002
sg17
F7.8499999999999996
sg18
F0.080000000000000002
sg19
F0.059999999999999998
sg20
F0.68999999999999995
sg21
F5.7999999999999998
sg22
g167
sg23
g24
(g26
S'\xf7\xe4a\xa1\xd6|k@'
tRp171
sg28
F30.359999999999999
sg29
F18
sg30
F0.47999999999999998
sg31
F0.80000000000000004
sg32
(lp172
F26.399999999999999
aF-14.6
aF17.699999999999999
asg34
F29.399999999999999
sg35
F-1.98
sg36
F5
sg37
F0.040000000000000001
sg38
F0.089999999999999997
sg39
F-136.19999999999999
sg40
F0.97999999999999998
sg41
F-7.8300000000000001
sg42
g24
(g26
S'}\xd0\xb3Y\xf5\x89:\xc0'
tRp173
sg44
Nsg45
Nsg47
F16.510000000000002
sg48
F0.80000000000000004
sg49
F331.06
sg50
Nsg51
F18.5
sg52
NsbsS'NGC 5272'
p174
g3
(g4
g5
NtRp175
(dp176
g8
F6.1900000000000004
sg9
F-147.59999999999999
sg10
F1.8899999999999999
sg11
S'F6'
p177
sg13
F3.5699999999999998
sg14
F9.7899999999999991
sg15
F10.199999999999999
sg16
F2.3100000000000001
sg17
F8.3100000000000005
sg18
F0.089999999999999997
sg19
F0.37
sg20
F0.68999999999999995
sg21
F5.5
sg22
g174
sg23
g24
(g26
S'\x0b$(~\x8c\xb1i@'
tRp178
sg28
F78.709999999999994
sg29
F15.07
sg30
Nsg31
F0.29999999999999999
sg32
(lp179
F1.5
aF1.3
aF10
asg34
F12
sg35
F-1.5
sg36
F7
sg37
F0.040000000000000001
sg38
F0.01
sg39
F-138.30000000000001
sg40
F0.93000000000000005
sg41
F-8.8800000000000008
sg42
g24
(g26
S'\xe3\xc7\x98\xbb\x96`<@'
tRp180
sg44
Nsg45
S'M 3'
p181
sg47
F16.640000000000001
sg48
F0.20000000000000001
sg49
F42.219999999999999
sg50
Nsg51
F15.640000000000001
sg52
NsbsS'FSR 1735'
p182
g3
(g4
g5
NtRp183
(dp184
g8
F12.9
sg9
Nsg10
F0.56000000000000005
sg11
Nsg13
Nsg14
F8.1099999999999994
sg15
F9.8000000000000007
sg16
F0.34000000000000002
sg17
Nsg18
Nsg19
F0.39000000000000001
sg20
Nsg21
Nsg22
g182
sg23
g24
(g26
S'vO\x1e\x16j\xa1o@'
tRp185
sg28
F-1.8500000000000001
sg29
F19.350000000000001
sg30
Nsg31
Nsg32
(lp186
F9.0999999999999996
aF-3.5
aF-0.29999999999999999
asg34
F3.7000000000000002
sg35
Nsg36
F0
sg37
Nsg38
F1.4199999999999999
sg39
Nsg40
Nsg41
F-6.4500000000000002
sg42
g24
(g26
S'\xe5\xf2\x1f\xd2o\x87G\xc0'
tRp187
sg44
Nsg45
Nsg47
Nsg48
Nsg49
F339.19
sg50
Nsg51
F20
sg52
NsbsS'NGC 7089'
p188
g3
(g4
g5
NtRp189
(dp190
g8
F6.4699999999999998
sg9
F-5.2999999999999998
sg10
F1.5900000000000001
sg11
S'F4'
p191
sg13
F4
sg14
F9.4000000000000004
sg15
F11.5
sg16
F1.0600000000000001
sg17
F8.4800000000000004
sg18
F0.089999999999999997
sg19
F0.32000000000000001
sg20
F0.66000000000000003
sg21
F8.1999999999999993
sg22
g188
sg23
g24
(g26
S'yX\xa85\xcd5t@'
tRp192
sg28
F-35.770000000000003
sg29
F15.5
sg30
F0.46000000000000002
sg31
F0.59999999999999998
sg32
(lp193
F5.5999999999999996
aF7.5
aF-6.7000000000000002
asg34
F10.4
sg35
F-1.6499999999999999
sg36
F5
sg37
F0.11
sg38
F0.059999999999999998
sg39
F3.7999999999999998
sg40
F0.92000000000000004
sg41
F-9.0299999999999994
sg42
g24
(g26
S'\x81&\xc2\x86\xa7W\xea\xbf'
tRp194
sg44
Nsg45
S'M 2'
p195
sg47
F15.779999999999999
sg48
F2
sg49
F53.369999999999997
sg50
Nsg51
F16.050000000000001
sg52
NsbsS'NGC 6558'
p196
g3
(g4
g5
NtRp197
(dp198
g8
F9.2599999999999998
sg9
F-197.19999999999999
sg10
F2.5
sg11
S'F7'
p199
sg13
F5.3499999999999996
sg14
F9.1199999999999992
sg15
F7.4000000000000004
sg16
F2.1499999999999999
sg17
F5.71
sg18
F0.57999999999999996
sg19
Nsg20
F1.1100000000000001
sg21
F3.1000000000000001
sg22
g196
sg23
g24
(g26
S'\xc0\xec\x9e<,\tq@'
tRp200
sg28
F-6.0199999999999996
sg29
F15.699999999999999
sg30
F0.70999999999999996
sg31
F0.90000000000000002
sg32
(lp201
F7.2999999999999998
aF0
aF-0.80000000000000004
asg34
F1
sg35
F-1.3200000000000001
sg36
F5
sg37
Nsg38
F0.44
sg39
F-189.40000000000001
sg40
F1.46
sg41
F-6.4400000000000004
sg42
g24
(g26
S'\x16jM\xf3\x8e\xc3?\xc0'
tRp202
sg44
Nsg45
Nsg47
F16.48
sg48
F1.5
sg49
F0.20000000000000001
sg50
Nsg51
F16.300000000000001
sg52
NsbsS'NGC 4372'
p203
g3
(g4
g5
NtRp204
(dp205
g8
F7.2400000000000002
sg9
F72.299999999999997
sg10
F1.3
sg11
S'F5'
p206
sg13
F2.0600000000000001
sg14
F9.5899999999999999
sg15
F5.7999999999999998
sg16
F3.9100000000000001
sg17
F8.8800000000000008
sg18
F0.31
sg19
F1.75
sg20
F1.1000000000000001
sg21
Nsg22
g203
sg23
g24
(g26
S'\xe7\x8c(\xed\rNg@'
tRp207
sg28
F-9.8800000000000008
sg29
F15.029999999999999
sg30
F0.71999999999999997
sg31
Nsg32
(lp208
F2.8999999999999999
aF-4.9000000000000004
aF-1
asg34
F7.0999999999999996
sg35
F-2.1699999999999999
sg36
F4
sg37
F0.14999999999999999
sg38
F0.39000000000000001
sg39
F64.200000000000003
sg40
F1.5
sg41
F-7.79
sg42
g24
(g26
S'\x19\x04V\x0e-*R\xc0'
tRp209
sg44
Nsg45
Nsg47
F20.579999999999998
sg48
F1.2
sg49
F300.99000000000001
sg50
Nsg51
F15.5
sg52
NsbsS'NGC 6496'
p210
g3
(g4
g5
NtRp211
(dp212
g8
F8.5399999999999991
sg9
F-112.7
sg10
F0.69999999999999996
sg11
S'G4'
p213
sg13
F1.99
sg14
F9.0399999999999991
sg15
F11.300000000000001
sg16
F1.02
sg17
F8.9399999999999995
sg18
F0.45000000000000001
sg19
F0.94999999999999996
sg20
F0.97999999999999998
sg21
Nsg22
g210
sg23
g24
(g26
S'\x10z6\xab>\xdcp@'
tRp214
sg28
F-10.01
sg29
F15.74
sg30
Nsg31
Nsg32
(lp215
F10.9
aF-2.2999999999999998
aF-2
asg34
F4.2000000000000002
sg35
F-0.46000000000000002
sg36
F3
sg37
F0.16
sg38
F0.14999999999999999
sg39
F-108.40000000000001
sg40
Nsg41
F-7.2000000000000002
sg42
g24
(g26
S'\xd2\x00\xde\x02\t"F\xc0'
tRp216
sg44
Nsg45
Nsg47
F20.170000000000002
sg48
F5.7000000000000002
sg49
F348.02999999999997
sg50
Nsg51
F16.469999999999999
sg52
NsbsS'NGC 6316'
p217
g3
(g4
g5
NtRp218
(dp219
g8
F8.4299999999999997
sg9
F71.400000000000006
sg10
F1.6499999999999999
sg11
S'G2'
p220
sg13
F4.2300000000000004
sg14
F8.8900000000000006
sg15
F10.4
sg16
F0.65000000000000002
sg17
F7.71
sg18
F0.62
sg19
F0.17000000000000001
sg20
F1.3899999999999999
sg21
Nsg22
g217
sg23
g24
(g26
S'\xc6\xdc\xb5\x84|2p@'
tRp221
sg28
F5.7599999999999998
sg29
F16.77
sg30
F0.84999999999999998
sg31
Nsg32
(lp222
F10.4
aF-0.5
aF1
asg34
F2.6000000000000001
sg35
F-0.45000000000000001
sg36
F5
sg37
F0.040000000000000001
sg38
F0.54000000000000004
sg39
F79.900000000000006
sg40
F1.8
sg41
F-8.3399999999999999
sg42
g24
(g26
S'k+\xf6\x97\xdd#<\xc0'
tRp223
sg44
Nsg45
Nsg47
F17.440000000000001
sg48
F8.9000000000000004
sg49
F357.18000000000001
sg50
Nsg51
F17.5
sg52
NsbsS'Ko 2'
p224
g3
(g4
g5
NtRp225
(dp226
g8
F17.600000000000001
sg9
Nsg10
F0.5
sg11
Nsg13
Nsg14
F7.7000000000000002
sg15
F34.700000000000003
sg16
F0.20999999999999999
sg17
Nsg18
Nsg19
F0.25
sg20
Nsg21
Nsg22
g224
sg23
g24
(g26
S'\xa3#\xb9\xfc\x87\xe4]@'
tRp227
sg28
F25.539999999999999
sg29
F17.949999999999999
sg30
Nsg31
Nsg32
(lp228
F-30.199999999999999
aF-8.1999999999999993
aF15
asg34
F41.899999999999999
sg35
Nsg36
F0
sg37
Nsg38
F0.080000000000000002
sg39
Nsg40
Nsg41
F-0.34999999999999998
sg42
g24
(g26
S'\xe1z\x14\xaeGA:@'
tRp229
sg44
Nsg45
Nsg47
Nsg48
Nsg49
F195.12
sg50
Nsg51
F18.600000000000001
sg52
NsbsS'Ko 1'
p230
g3
(g4
g5
NtRp231
(dp232
g8
F17.100000000000001
sg9
Nsg10
F0.5
sg11
Nsg13
Nsg14
F8.6199999999999992
sg15
F48.299999999999997
sg16
F0.26000000000000001
sg17
Nsg18
Nsg19
F0.33000000000000002
sg20
Nsg21
Nsg22
g230
sg23
g24
(g26
S'\xb1Pk\x9awzf@'
tRp233
sg28
F70.75
sg29
F18.449999999999999
sg30
Nsg31
Nsg32
(lp234
F-2.5
aF-15.699999999999999
aF45.600000000000001
asg34
F49.299999999999997
sg35
Nsg36
F0
sg37
Nsg38
F0.01
sg39
Nsg40
Nsg41
F-1.3500000000000001
sg42
g24
(g26
S'\x85\xebQ\xb8\x1e\x85(@'
tRp235
sg44
Nsg45
Nsg47
Nsg48
Nsg49
F260.99000000000001
sg50
Nsg51
F19.100000000000001
sg52
NsbsS'NGC 5286'
p236
g3
(g4
g5
NtRp237
(dp238
g8
F7.3399999999999999
sg9
F57.399999999999999
sg10
F1.4099999999999999
sg11
S'F5'
p239
sg13
F4.0999999999999996
sg14
F9.1099999999999994
sg15
F11.699999999999999
sg16
F0.72999999999999998
sg17
F8.4000000000000004
sg18
F0.28000000000000003
sg19
F0.28000000000000003
sg20
F0.88
sg21
F8.0999999999999996
sg22
g236
sg23
g24
(g26
S'\xd3\xde\xe0\x0b\x93\xd3i@'
tRp240
sg28
F10.57
sg29
F16.079999999999998
sg30
F0.57999999999999996
sg31
F1
sg32
(lp241
F7.5999999999999996
aF-8.5999999999999996
aF2.1000000000000001
asg34
F8.9000000000000004
sg35
F-1.6899999999999999
sg36
F4
sg37
F0.12
sg38
F0.23999999999999999
sg39
F54.299999999999997
sg40
F1.1899999999999999
sg41
F-8.7400000000000002
sg42
g24
(g26
S'Gr\xf9\x0f\xe9\xafI\xc0'
tRp242
sg44
Nsg45
Nsg47
F16.219999999999999
sg48
F1.5
sg49
F311.61000000000001
sg50
Nsg51
F16.629999999999999
sg52
NsbsS'NGC 6256'
p243
g3
(g4
g5
NtRp244
(dp245
g8
F11.289999999999999
sg9
F-101.40000000000001
sg10
F2.5
sg11
Nsg13
F5.5899999999999999
sg14
F8.8599999999999994
sg15
F10.300000000000001
sg16
F0.85999999999999999
sg17
F5.8200000000000003
sg18
F1.03
sg19
Nsg20
F1.6899999999999999
sg21
F6.5999999999999996
sg22
g243
sg23
g24
(g26
S'\xd8\xf0\xf4JY\xdco@'
tRp246
sg28
F3.3100000000000001
sg29
F18.440000000000001
sg30
Nsg31
F2.6000000000000001
sg32
(lp247
F10
aF-2.2000000000000002
aF0.59999999999999998
asg34
F3
sg35
F-1.02
sg36
F2
sg37
Nsg38
F1.0900000000000001
sg39
F-95.599999999999994
sg40
Nsg41
F-7.1500000000000004
sg42
g24
(g26
S'\x01\xde\x02\t\x8a\x8fB\xc0'
tRp248
sg44
Nsg45
Nsg47
F17.890000000000001
sg48
F1.8999999999999999
sg49
F347.79000000000002
sg50
Nsg51
F19.09
sg52
NsbsS'NGC 6254'
p249
g3
(g4
g5
NtRp250
(dp251
g8
F6.5999999999999996
sg9
F75.200000000000003
sg10
F1.3799999999999999
sg11
S'F3'
p252
sg13
F3.54
sg14
F8.9000000000000004
sg15
F4.4000000000000004
sg16
F1.95
sg17
F8.2100000000000009
sg18
F0.23000000000000001
sg19
F0.77000000000000002
sg20
F0.90000000000000002
sg21
F6.5999999999999996
sg22
g249
sg23
g24
(g26
S'\xe5a\xa1\xd64\xc9o@'
tRp253
sg28
F23.079999999999998
sg29
F14.08
sg30
F0.53000000000000003
sg31
F0.80000000000000004
sg32
(lp254
F3.8999999999999999
aF1.1000000000000001
aF1.7
asg34
F4.5999999999999996
sg35
F-1.5600000000000001
sg36
F4
sg37
F0
sg38
F0.28000000000000003
sg39
F88.5
sg40
F1.21
sg41
F-7.4800000000000004
sg42
g24
(g26
S"\xbb'\x0f\x0b\xb5f\x10\xc0"
tRp255
sg44
Nsg45
S'M 10'
p256
sg47
F17.699999999999999
sg48
F0.69999999999999996
sg49
F15.140000000000001
sg50
Nsg51
F14.65
sg52
NsbsS'NGC 6397'
p257
g3
(g4
g5
NtRp258
(dp259
g8
F5.7300000000000004
sg9
F18.800000000000001
sg10
F2.5
sg11
S'F4'
p260
sg13
F5.7599999999999998
sg14
F8.5999999999999996
sg15
F2.2999999999999998
sg16
F2.8999999999999999
sg17
F4.9400000000000004
sg18
F0.12
sg19
Nsg20
F0.72999999999999998
sg21
F4.5
sg22
g257
sg23
g24
(g26
S'\x7f\xfb:p\xce\x92p@'
tRp261
sg28
F-11.960000000000001
sg29
F12.369999999999999
sg30
F0.48999999999999999
sg31
F0.20000000000000001
sg32
(lp262
F2.1000000000000001
aF-0.80000000000000004
aF-0.5
asg34
F6
sg35
F-2.02
sg36
F7
sg37
F0.070000000000000007
sg38
F0.17999999999999999
sg39
F20.300000000000001
sg40
F1.03
sg41
F-6.6399999999999997
sg42
g24
(g26
S'\xae\xd8_vO\xd6J\xc0'
tRp263
sg44
Nsg45
Nsg47
F15.470000000000001
sg48
F0.10000000000000001
sg49
F338.17000000000002
sg50
Nsg51
F12.869999999999999
sg52
NsbsS'NGC 6144'
p264
g3
(g4
g5
NtRp265
(dp266
g8
F9.0099999999999998
sg9
F193.80000000000001
sg10
F1.55
sg11
S'F5'
p267
sg13
F2.3100000000000001
sg14
F9.1400000000000006
sg15
F8.9000000000000004
sg16
F1.6299999999999999
sg17
F8.7799999999999994
sg18
F0.34999999999999998
sg19
F0.93999999999999995
sg20
F0.95999999999999996
sg21
Nsg22
g264
sg23
g24
(g26
S'V\x9f\xab\xad\xd8\xd9n@'
tRp268
sg28
F15.699999999999999
sg29
F15.859999999999999
sg30
F0.59999999999999998
sg31
Nsg32
(lp269
F8.5
aF-1.2
aF2.3999999999999999
asg34
F2.7000000000000002
sg35
F-1.76
sg36
F4
sg37
Nsg38
F0.35999999999999999
sg39
F201.90000000000001
sg40
F1.1000000000000001
sg41
F-6.8499999999999996
sg42
g24
(g26
S'\xbct\x93\x18\x04\x06:\xc0'
tRp270
sg44
Nsg45
Nsg47
F20.050000000000001
sg48
F0.59999999999999998
sg49
F351.93000000000001
sg50
Nsg51
F16.399999999999999
sg52
NsbsS'NGC 362'
p271
g3
(g4
g5
NtRp272
(dp273
g8
F6.4000000000000004
sg9
F223.5
sg10
F1.76
sg11
S'F9'
p274
sg13
F4.7400000000000002
sg14
F8.9299999999999997
sg15
F8.5999999999999996
sg16
F0.81999999999999995
sg17
F7.7599999999999998
sg18
F0.16
sg19
Nsg20
F0.77000000000000002
sg21
F6.4000000000000004
sg22
g271
sg23
g24
(g26
S'\xca\xc3B\xadi\x9e/@'
tRp275
sg28
F-46.25
sg29
F14.83
sg30
F0.48999999999999999
sg31
F0.29999999999999999
sg32
(lp276
F3.1000000000000001
aF-5.0999999999999996
aF-6.2000000000000002
asg34
F9.4000000000000004
sg35
F-1.26
sg36
F5
sg37
F0.01
sg38
F0.050000000000000003
sg39
F214
sg40
F1.01
sg41
F-8.4299999999999997
sg42
g24
(g26
S'\x116<\xbdR\xb6Q\xc0'
tRp277
sg44
Nsg45
Nsg47
F14.800000000000001
sg48
F0.5
sg49
F301.52999999999997
sg50
Nsg51
F15.44
sg52
NsbsS'NGC 6779'
p278
g3
(g4
g5
NtRp279
(dp280
g8
F8.2699999999999996
sg9
F-135.59999999999999
sg10
F1.3799999999999999
sg11
S'F5'
p281
sg13
F3.2799999999999998
sg14
F9.0099999999999998
sg15
F9.4000000000000004
sg16
F1.1000000000000001
sg17
F8.3300000000000001
sg18
F0.14999999999999999
sg19
F0.44
sg20
F0.85999999999999999
sg21
F4
sg22
g278
sg23
g24
(g26
S'F\x94\xf6\x06_\x12r@'
tRp282
sg28
F8.3399999999999999
sg29
F15.68
sg30
Nsg31
F0.59999999999999998
sg32
(lp283
F4.2999999999999998
aF8.3000000000000007
aF1.3999999999999999
asg34
F9.1999999999999993
sg35
F-1.98
sg36
F2
sg37
F0.029999999999999999
sg38
F0.26000000000000001
sg39
F-119.09999999999999
sg40
F1.1599999999999999
sg41
F-7.4100000000000001
sg42
g24
(g26
S'\xe5\xd0"\xdb\xf9.>@'
tRp284
sg44
Nsg45
S'M 56'
p285
sg47
F18.079999999999998
sg48
F0.90000000000000002
sg49
F62.659999999999997
sg50
Nsg51
F16.18
sg52
NsbsS'Ton 2'
p286
g3
(g4
g5
NtRp287
(dp288
g8
F12.24
sg9
F-184.40000000000001
sg10
F1.3
sg11
Nsg13
F2.8500000000000001
sg14
F8.8200000000000003
sg15
F8.1999999999999993
sg16
F1.3
sg17
F8.2300000000000004
sg18
Nsg19
F0.54000000000000004
sg20
Nsg21
Nsg22
g286
sg23
g24
(g26
S'\t\xf9\xa0g\xb3\x80p@'
tRp289
sg28
F-3.4199999999999999
sg29
F18.41
sg30
Nsg31
Nsg32
(lp290
F8.0999999999999996
aF-1.3
aF-0.5
asg34
F1.3999999999999999
sg35
F-0.69999999999999996
sg36
F1
sg37
Nsg38
F1.24
sg39
F-178.59999999999999
sg40
Nsg41
F-6.1699999999999999
sg42
g24
(g26
S';p\xce\x88\xd2FC\xc0'
tRp291
sg44
Nsg45
S'Pismis 26'
p292
sg47
F22.16
sg48
F2.2000000000000002
sg49
F350.80000000000001
sg50
Nsg51
F19.100000000000001
sg52
NsbsS'NGC 6553'
p293
g3
(g4
g5
NtRp294
(dp295
g8
F8.0600000000000005
sg9
F-3.2000000000000002
sg10
F1.1599999999999999
sg11
S'G4'
p296
sg13
F3.8399999999999999
sg14
F8.7200000000000006
sg15
F6
sg16
F1.03
sg17
F8.2400000000000002
sg18
F1.3400000000000001
sg19
F0.53000000000000003
sg20
F1.73
sg21
Nsg22
g293
sg23
g24
(g26
S'\xc0\xec\x9e<,\x05q@'
tRp297
sg28
F-3.0299999999999998
sg29
F15.83
sg30
F1.01
sg31
Nsg32
(lp298
F5.9000000000000004
aF0.5
aF-0.29999999999999999
asg34
F2.2000000000000002
sg35
F-0.17999999999999999
sg36
F6
sg37
F0.17000000000000001
sg38
F0.63
sg39
F6.0999999999999996
sg40
F2.1299999999999999
sg41
F-7.7699999999999996
sg42
g24
(g26
S'\r\xe0-\x90\xa0\xe89\xc0'
tRp299
sg44
Nsg45
Nsg47
F18.170000000000002
sg48
F1.5
sg49
F5.2599999999999998
sg50
Nsg51
F16.600000000000001
sg52
NsbsS'NGC 7006'
p300
g3
(g4
g5
NtRp301
(dp302
g8
F10.56
sg9
F-384.10000000000002
sg10
F1.4099999999999999
sg11
S'F6'
p303
sg13
F2.5800000000000001
sg14
F9.4199999999999999
sg15
F41.200000000000003
sg16
F0.44
sg17
F8.6600000000000001
sg18
F0.059999999999999998
sg19
F0.17000000000000001
sg20
F0.75
sg21
Nsg22
g300
sg23
g24
(g26
S'}\xd0\xb3Y\xf5\xb5s@'
tRp304
sg28
F-19.41
sg29
F18.23
sg30
Nsg31
Nsg32
(lp305
F17.199999999999999
aF34.799999999999997
aF-13.699999999999999
asg34
F38.5
sg35
F-1.52
sg36
F6
sg37
F0.01
sg38
F0.050000000000000003
sg39
F-371.30000000000001
sg40
F0.97999999999999998
sg41
F-7.6699999999999999
sg42
g24
(g26
S'r\x8a\x8e\xe4\xf2/0@'
tRp306
sg44
Nsg45
Nsg47
F18.620000000000001
sg48
F0.40000000000000002
sg49
F63.770000000000003
sg50
Nsg51
F18.800000000000001
sg52
NsbsS'NGC 5946'
p307
g3
(g4
g5
NtRp308
(dp309
g8
F9.6099999999999994
sg9
F128.40000000000001
sg10
F2.5
sg11
S'F7'
p310
sg13
F4.6799999999999997
sg14
F8.9100000000000001
sg15
F10.6
sg16
F0.89000000000000001
sg17
F6.9000000000000004
sg18
F0.45000000000000001
sg19
Nsg20
F1.29
sg21
F4
sg22
g307
sg23
g24
(g26
S'yX\xa85\xcd;m@'
tRp311
sg28
F4.1900000000000004
sg29
F16.789999999999999
sg30
F0.77000000000000002
sg31
F2.8999999999999999
sg32
(lp312
F8.9000000000000004
aF-5.5999999999999996
aF0.80000000000000004
asg34
F5.7999999999999998
sg35
F-1.29
sg36
F4
sg37
Nsg38
F0.54000000000000004
sg39
F128.90000000000001
sg40
F1.5800000000000001
sg41
F-7.1799999999999997
sg42
g24
(g26
S'\xea\x95\xb2\x0cqTI\xc0'
tRp313
sg44
Nsg45
Nsg47
F17.190000000000001
sg48
F1.8
sg49
F327.57999999999998
sg50
Nsg51
F17.399999999999999
sg52
NsbsS'NGC 6304'
p314
g3
(g4
g5
NtRp315
(dp316
g8
F8.2200000000000006
sg9
F-107.3
sg10
F1.8
sg11
S'G3'
p317
sg13
F4.4900000000000002
sg14
F8.8499999999999996
sg15
F5.9000000000000004
sg16
F1.4199999999999999
sg17
F7.3600000000000003
sg18
F0.81999999999999995
sg19
F0.20999999999999999
sg20
F1.3100000000000001
sg21
Nsg22
g314
sg23
g24
(g26
S'RI\x9d\x80&*p@'
tRp318
sg28
F5.3799999999999999
sg29
F15.52
sg30
F0.77000000000000002
sg31
Nsg32
(lp319
F5.7999999999999998
aF-0.40000000000000002
aF0.59999999999999998
asg34
F2.2999999999999998
sg35
F-0.45000000000000001
sg36
F4
sg37
F0.02
sg38
F0.54000000000000004
sg39
F-99.299999999999997
sg40
F1.7
sg41
F-7.2999999999999998
sg42
g24
(g26
S'\x83\xc0\xca\xa1Ev=\xc0'
tRp320
sg44
Nsg45
Nsg47
F17.199999999999999
sg48
F3.6000000000000001
sg49
F355.82999999999998
sg50
Nsg51
F16.25
sg52
NsbsS'Eridanus'
p321
g3
(g4
g5
NtRp322
(dp323
g8
F14.699999999999999
sg9
F-23.600000000000001
sg10
F1.1000000000000001
sg11
Nsg13
F0.38
sg14
F9.5399999999999991
sg15
F90.099999999999994
sg16
F0.46000000000000002
sg17
F9.1799999999999997
sg18
Nsg19
F0.25
sg20
F0.79000000000000004
sg21
Nsg22
g321
sg23
g24
(g26
S'k+\xf6\x97\xdd\x8bP@'
tRp324
sg28
F-41.329999999999998
sg29
F19.829999999999998
sg30
Nsg31
Nsg32
(lp325
F-53.200000000000003
aF-41.700000000000003
aF-59.5
asg34
F95
sg35
F-1.4299999999999999
sg36
F4
sg37
Nsg38
F0.02
sg39
F-39.100000000000001
sg40
Nsg41
F-5.1299999999999999
sg42
g24
(g26
S'V\x9f\xab\xad\xd8/5\xc0'
tRp326
sg44
Nsg45
Nsg47
F22.809999999999999
sg48
F2.1000000000000001
sg49
F218.09999999999999
sg50
Nsg51
F20.420000000000002
sg52
NsbsS'NGC 6981'
p327
g3
(g4
g5
NtRp328
(dp329
g8
F9.2699999999999996
sg9
F-345
sg10
F1.21
sg11
S'F7'
p330
sg13
F2.3799999999999999
sg14
F9.2300000000000004
sg15
F17
sg16
F0.93000000000000005
sg17
F8.7200000000000006
sg18
F0.14000000000000001
sg19
F0.46000000000000002
sg20
F0.71999999999999997
sg21
Nsg22
g327
sg23
g24
(g26
S'V\x9f\xab\xad\xd8\x95s@'
tRp331
sg28
F-32.68
sg29
F16.309999999999999
sg30
F0.45000000000000001
sg31
Nsg32
(lp332
F11.699999999999999
aF8.3000000000000007
aF-9.1999999999999993
asg34
F12.9
sg35
F-1.4199999999999999
sg36
F4
sg37
F0.02
sg38
F0.050000000000000003
sg39
F-336.19999999999999
sg40
F0.93999999999999995
sg41
F-7.04
sg42
g24
(g26
S'\x17HP\xfc\x18\x13)\xc0'
tRp333
sg44
Nsg45
S'M 72'
p334
sg47
F19.02
sg48
F3.7000000000000002
sg49
F35.159999999999997
sg50
Nsg51
F16.899999999999999
sg52
NsbsS'NGC 6544'
p335
g3
(g4
g5
NtRp336
(dp337
g8
F7.7699999999999996
sg9
F-27.300000000000001
sg10
F1.6299999999999999
sg11
S'F9'
p338
sg13
F6.0599999999999996
sg14
F8.2400000000000002
sg15
F3
sg16
F1.21
sg17
F5.3499999999999996
sg18
F0.72999999999999998
sg19
Nsg20
F1.46
sg21
Nsg22
g335
sg23
g24
(g26
S'\xf3\x1f\xd2o_\xfdp@'
tRp339
sg28
F-2.2000000000000002
sg29
F14.710000000000001
sg30
F0.97999999999999998
sg31
Nsg32
(lp340
F2.8999999999999999
aF0.29999999999999999
aF-0.10000000000000001
asg34
F5.0999999999999996
sg35
F-1.3999999999999999
sg36
F4
sg37
F0.22
sg38
F0.76000000000000001
sg39
F-17.699999999999999
sg40
F1.9199999999999999
sg41
F-6.9400000000000004
sg42
g24
(g26
S'\x01M\x84\rO\xff8\xc0'
tRp341
sg44
Nsg45
Nsg47
F16.309999999999999
sg48
F3.8999999999999999
sg49
F5.8399999999999999
sg50
Nsg51
F15.300000000000001
sg52
NsbsS'NGC 6541'
p342
g3
(g4
g5
NtRp343
(dp344
g8
F6.2999999999999998
sg9
F-158.69999999999999
sg10
F1.8600000000000001
sg11
S'F6'
p345
sg13
F4.6500000000000004
sg14
F9.0299999999999994
sg15
F7.5
sg16
F1.0600000000000001
sg17
F7.5499999999999998
sg18
F0.13
sg19
Nsg20
F0.76000000000000001
sg21
F8.1999999999999993
sg22
g342
sg23
g24
(g26
S'\x03x\x0b$(\x00q@'
tRp346
sg28
F-11.19
sg29
F14.82
sg30
F0.48999999999999999
sg31
F2.1000000000000001
sg32
(lp347
F7.2999999999999998
aF-1.3999999999999999
aF-1.5
asg34
F2.1000000000000001
sg35
F-1.8100000000000001
sg36
F4
sg37
F0.12
sg38
F0.14000000000000001
sg39
F-154.19999999999999
sg40
F1.01
sg41
F-8.5199999999999996
sg42
g24
(g26
S'\x88\xf4\xdb\xd7\x81\xdbE\xc0'
tRp348
sg44
Nsg45
Nsg47
F15.44
sg48
F2.2999999999999998
sg49
F349.29000000000002
sg50
Nsg51
F15.35
sg52
NsbsS'Djorg 2'
p349
g3
(g4
g5
NtRp350
(dp351
g8
F9.9000000000000004
sg9
Nsg10
F1.5
sg11
Nsg13
F3.8500000000000001
sg14
F0
sg15
F6.2999999999999998
sg16
F1.05
sg17
F7.7300000000000004
sg18
Nsg19
F0.33000000000000002
sg20
Nsg21
Nsg22
g349
sg23
g24
(g26
S'0L\xa6\nF\xe7p@'
tRp352
sg28
F-2.5
sg29
F16.899999999999999
sg30
Nsg31
Nsg32
(lp353
F6.2000000000000002
aF0.29999999999999999
aF-0.29999999999999999
asg34
F1.8
sg35
F-0.65000000000000002
sg36
F1
sg37
Nsg38
F0.93999999999999995
sg39
Nsg40
Nsg41
F-7
sg42
g24
(g26
S'l\t\xf9\xa0g\xd3;\xc0'
tRp354
sg44
Nsg45
S'ESO456-SC38'
p355
sg47
F19.5
sg48
Nsg49
F2.77
sg50
Nsg51
F17.600000000000001
sg52
NsbsS'NGC 6266'
p356
g3
(g4
g5
NtRp357
(dp358
g8
F6.4500000000000002
sg9
F-70.099999999999994
sg10
F1.71
sg11
S'F9'
p359
sg13
F5.1600000000000001
sg14
F8.9800000000000004
sg15
F6.7999999999999998
sg16
F0.92000000000000004
sg17
F7.9000000000000004
sg18
F0.52000000000000002
sg19
Nsg20
F1.1899999999999999
sg21
F14.300000000000001
sg22
g356
sg23
g24
(g26
S'\x0f\x9c3\xa2\xb4\xe9o@'
tRp360
sg28
F7.3200000000000003
sg29
F15.630000000000001
sg30
F0.73999999999999999
sg31
F0.40000000000000002
sg32
(lp361
F6.7000000000000002
aF-0.80000000000000004
aF0.90000000000000002
asg34
F1.7
sg35
F-1.1799999999999999
sg36
F3
sg37
F0.01
sg38
F0.46999999999999997
sg39
F-62.299999999999997
sg40
F1.5800000000000001
sg41
F-9.1799999999999997
sg42
g24
(g26
S'"\x8euq\x1b\x1d>\xc0'
tRp362
sg44
Nsg45
S'M 62'
p363
sg47
F15.1
sg48
F1.3999999999999999
sg49
F353.56999999999999
sg50
Nsg51
F16.25
sg52
NsbsS'2MS-GC02'
p364
g3
(g4
g5
NtRp365
(dp366
g8
F24.600000000000001
sg9
F-238
sg10
F0.94999999999999996
sg11
Nsg13
Nsg14
F7.7199999999999998
sg15
F4.9000000000000004
sg16
F0.55000000000000004
sg17
Nsg18
Nsg19
F0.55000000000000004
sg20
Nsg21
Nsg22
g364
sg23
g24
(g26
S'\x8c\xdbh\x00o\x06q@'
tRp367
sg28
F-0.60999999999999999
sg29
F29.460000000000001
sg30
Nsg31
Nsg32
(lp368
F4.9000000000000004
aF0.80000000000000004
aF-0.10000000000000001
asg34
F3.2000000000000002
sg35
F-1.0800000000000001
sg36
F1
sg37
Nsg38
F5.1600000000000001
sg39
F-227.40000000000001
sg40
Nsg41
F-4.8600000000000003
sg42
g24
(g26
S'\xba\xda\x8a\xfde\xc74\xc0'
tRp369
sg44
Nsg45
S'2MASS-GC02'
p370
sg47
Nsg48
F36
sg49
F9.7899999999999991
sg50
Nsg51
F30.100000000000001
sg52
NsbsS'NGC 6388'
p371
g3
(g4
g5
NtRp372
(dp373
g8
F6.7199999999999998
sg9
F80.099999999999994
sg10
F1.75
sg11
S'G2'
p374
sg13
F5.3700000000000001
sg14
F8.9000000000000004
sg15
F9.9000000000000004
sg16
F0.52000000000000002
sg17
F7.7199999999999998
sg18
F0.66000000000000003
sg19
F0.12
sg20
F1.1699999999999999
sg21
F18.899999999999999
sg22
g371
sg23
g24
(g26
S'\xa5\xbd\xc1\x17&\x81p@'
tRp375
sg28
F-6.7400000000000002
sg29
F16.129999999999999
sg30
F0.70999999999999996
sg31
F0.80000000000000004
sg32
(lp376
F9.5999999999999996
aF-2.5
aF-1.2
asg34
F3.1000000000000001
sg35
F-0.55000000000000004
sg36
F6
sg37
F0.01
sg38
F0.37
sg39
F84.200000000000003
sg40
F1.47
sg41
F-9.4100000000000001
sg42
g24
(g26
S'\xa0\x1a/\xdd$^F\xc0'
tRp377
sg44
Nsg45
Nsg47
F14.49
sg48
F0.80000000000000004
sg49
F345.56
sg50
Nsg51
F16.850000000000001
sg52
NsbsS'NGC 5466'
p378
g3
(g4
g5
NtRp379
(dp380
g8
F9.0399999999999991
sg9
F110.7
sg10
F1.04
sg11
Nsg13
F0.83999999999999997
sg14
F9.7599999999999998
sg15
F16
sg16
F2.2999999999999998
sg17
F9.3499999999999996
sg18
Nsg19
F1.4299999999999999
sg20
F0.67000000000000004
sg21
F1.7
sg22
g378
sg23
g24
(g26
S'\xc4\xb1.n\xa3kj@'
tRp381
sg28
F73.590000000000003
sg29
F16.02
sg30
Nsg31
F0.20000000000000001
sg32
(lp382
F3.2999999999999998
aF3
aF15.300000000000001
asg34
F16.300000000000001
sg35
F-1.98
sg36
F3
sg37
F0.11
sg38
F0
sg39
F121.2
sg40
F0.81999999999999995
sg41
F-6.9800000000000004
sg42
g24
(g26
S'\x7f\xfb:p\xce\x88<@'
tRp383
sg44
Nsg45
Nsg47
F21.609999999999999
sg48
F0.20000000000000001
sg49
F42.149999999999999
sg50
Nsg51
F16.52
sg52
NsbsS'1636-283'
p384
g3
(g4
g5
NtRp385
(dp386
g8
F12
sg9
Nsg10
F1
sg11
Nsg13
F2.5
sg14
F7.8700000000000001
sg15
F8.3000000000000007
sg16
F0.5
sg17
F8.0700000000000003
sg18
Nsg19
F0.5
sg20
Nsg21
Nsg22
g384
sg23
g24
(g26
S'\x08\xac\x1cZd;o@'
tRp387
sg28
F12.1
sg29
F16.02
sg30
Nsg31
Nsg32
(lp388
F8
aF-1.1000000000000001
aF1.7
asg34
F2.1000000000000001
sg35
F-1.5
sg36
F1
sg37
Nsg38
F0.46000000000000002
sg39
Nsg40
Nsg41
F-4.0199999999999996
sg42
g24
(g26
S'K\xea\x044\x11f<\xc0'
tRp389
sg44
Nsg45
S'ESO452-SC11'
p390
sg47
F20.75
sg48
Nsg49
F351.91000000000003
sg50
Nsg51
F16.600000000000001
sg52
NsbsS'NGC 1904'
p391
g3
(g4
g5
NtRp392
(dp393
g8
F7.7300000000000004
sg9
F205.80000000000001
sg10
F1.7
sg11
S'F5'
p394
sg13
F4.0800000000000001
sg14
F8.9499999999999993
sg15
F12.9
sg16
F0.65000000000000002
sg17
F7.8300000000000001
sg18
F0.059999999999999998
sg19
Nsg20
F0.65000000000000002
sg21
F5.2999999999999998
sg22
g391
sg23
g24
(g26
S'\xd0D\xd8\xf0\xf4BT@'
tRp395
sg28
F-29.350000000000001
sg29
F15.59
sg30
F0.44
sg31
F0.40000000000000002
sg32
(lp396
F-7.7000000000000002
aF-8.3000000000000007
aF-6.2999999999999998
asg34
F18.800000000000001
sg35
F-1.6000000000000001
sg36
F6
sg37
F0.01
sg38
F0.01
sg39
F189
sg40
F0.91000000000000003
sg41
F-7.8600000000000003
sg42
g24
(g26
S'\x116<\xbdR\x868\xc0'
tRp397
sg44
Nsg45
S'M 79'
p398
sg47
F16.02
sg48
F0.40000000000000002
sg49
F227.22999999999999
sg50
Nsg51
F16.149999999999999
sg52
NsbsS'NGC 6380'
p399
g3
(g4
g5
NtRp400
(dp401
g8
F11.31
sg9
F-3.6000000000000001
sg10
F1.55
sg11
Nsg13
F3.73
sg14
F8.8599999999999994
sg15
F10.9
sg16
F0.73999999999999999
sg17
F8.4000000000000004
sg18
Nsg19
Nsg20
F2.0099999999999998
sg21
Nsg22
g399
sg23
g24
(g26
S'\x17\xb7\xd1\x00\xdeyp@'
tRp402
sg28
F-3.4199999999999999
sg29
F18.809999999999999
sg30
Nsg31
Nsg32
(lp403
F10.699999999999999
aF-1.8999999999999999
aF-0.59999999999999998
asg34
F3.2999999999999998
sg35
F-0.75
sg36
F2
sg37
Nsg38
F1.1699999999999999
sg39
F2.1000000000000001
sg40
Nsg41
F-7.5
sg42
g24
(g26
S'\rq\xac\x8b\xdb\x88C\xc0'
tRp404
sg44
Nsg45
S'Ton 1'
p405
sg47
F19.890000000000001
sg48
F2.5
sg49
F350.18000000000001
sg50
Nsg51
F19.5
sg52
NsbsS'NGC 104'
p406
g3
(g4
g5
NtRp407
(dp408
g8
F3.9500000000000002
sg9
F-18
sg10
F2.0699999999999998
sg11
S'G4'
p409
sg13
F4.8799999999999999
sg14
F9.5500000000000007
sg15
F4.5
sg16
F3.1699999999999999
sg17
F7.8399999999999999
sg18
F0.37
sg19
F0.35999999999999999
sg20
F0.88
sg21
F11
sg22
g406
sg23
g24
(g26
S'\x0e\xbe0\x99*\x18\x18@'
tRp410
sg28
F-44.890000000000001
sg29
F13.369999999999999
sg30
F0.53000000000000003
sg31
F0.29999999999999999
sg32
(lp411
F1.8999999999999999
aF-2.6000000000000001
aF-3.1000000000000001
asg34
F7.4000000000000004
sg35
F0.71999999999999997
sg36
F10
sg37
F0.089999999999999997
sg38
F0.040000000000000001
sg39
F-26.699999999999999
sg40
F1.1399999999999999
sg41
F-9.4199999999999999
sg42
g24
(g26
S'\x8cJ\xea\x044\x05R\xc0'
tRp412
sg44
Nsg45
S'47 Tuc'
p413
sg47
F14.380000000000001
sg48
F0.10000000000000001
sg49
F305.88999999999999
sg50
Nsg51
F14.06
sg52
NsbsS'NGC 6171'
p414
g3
(g4
g5
NtRp415
(dp416
g8
F7.9299999999999997
sg9
F-34.100000000000001
sg10
F1.53
sg11
S'G0'
p417
sg13
F3.0800000000000001
sg14
F9
sg15
F6.4000000000000004
sg16
F1.73
sg17
F8.0600000000000005
sg18
F0.68999999999999995
sg19
F0.56000000000000005
sg20
F1.1000000000000001
sg21
F4.0999999999999996
sg22
g414
sg23
g24
(g26
S'\x15\x1d\xc9\xe5?\x04o@'
tRp418
sg28
F23.010000000000002
sg29
F15.050000000000001
sg30
F0.71999999999999997
sg31
F0.29999999999999999
sg32
(lp419
F5.9000000000000004
aF0.29999999999999999
aF2.5
asg34
F3.2999999999999998
sg35
F-1.02
sg36
F4
sg37
F0.02
sg38
F0.33000000000000002
sg39
F-23
sg40
F1.45
sg41
F-7.1200000000000001
sg42
g24
(g26
S'\xb3\x0cq\xac\x8b\x1b*\xc0'
tRp420
sg44
Nsg45
S'M 107'
p421
sg47
F18.940000000000001
sg48
F0.29999999999999999
sg49
F3.3700000000000001
sg50
Nsg51
F15.699999999999999
sg52
NsbsS'NGC 6284'
p422
g3
(g4
g5
NtRp423
(dp424
g8
F8.8300000000000001
sg9
F27.5
sg10
F2.5
sg11
S'F9'
p425
sg13
F4.5499999999999998
sg14
F9.0899999999999999
sg15
F15.300000000000001
sg16
F0.66000000000000003
sg17
F7.2400000000000002
sg18
F0.40000000000000002
sg19
Nsg20
F0.98999999999999999
sg21
F6.2999999999999998
sg22
g422
sg23
g24
(g26
S'=,\xd4\x9a\xe6\x01p@'
tRp426
sg28
F9.9399999999999995
sg29
F16.789999999999999
sg30
F0.65000000000000002
sg31
F0.90000000000000002
sg32
(lp427
F15
aF-0.40000000000000002
aF2.6000000000000001
asg34
F7.5
sg35
F-1.26
sg36
F2
sg37
F0.029999999999999999
sg38
F0.28000000000000003
sg39
F36.700000000000003
sg40
F1.3100000000000001
sg41
F-7.96
sg42
g24
(g26
S'\xdd\xb5\x84|\xd0\xc38\xc0'
tRp428
sg44
Nsg45
Nsg47
F16.350000000000001
sg48
F1.7
sg49
F358.35000000000002
sg50
Nsg51
F17.399999999999999
sg52
NsbsS'NGC 6287'
p429
g3
(g4
g5
NtRp430
(dp431
g8
F9.3499999999999996
sg9
F-288.69999999999999
sg10
F1.3799999999999999
sg11
S'F5'
p432
sg13
F3.7799999999999998
sg14
F8.75
sg15
F9.4000000000000004
sg16
F0.73999999999999999
sg17
F8.0600000000000005
sg18
F0.52000000000000002
sg19
F0.28999999999999998
sg20
F1.2
sg21
Nsg22
g429
sg23
g24
(g26
S'\xf8S\xe3\xa5\x9b\x04p@'
tRp433
sg28
F11.02
sg29
F16.719999999999999
sg30
F0.82999999999999996
sg31
Nsg32
(lp434
F9.1999999999999993
aF0
aF1.8
asg34
F2.1000000000000001
sg35
F-2.1000000000000001
sg36
F2
sg37
F0.13
sg38
F0.59999999999999998
sg39
F-279.10000000000002
sg40
F1.74
sg41
F-7.3600000000000003
sg42
g24
(g26
S'\x85|\xd0\xb3Y\xb56\xc0'
tRp435
sg44
Nsg45
Nsg47
F18.32
sg48
F3.5
sg49
F0.13
sg50
Nsg51
F17.199999999999999
sg52
NsbsS'NGC 6934'
p436
g3
(g4
g5
NtRp437
(dp438
g8
F8.8300000000000001
sg9
F-411.39999999999998
sg10
F1.53
sg11
S'F7'
p439
sg13
F3.4399999999999999
sg14
F9.0399999999999991
sg15
F15.6
sg16
F0.68999999999999995
sg17
F8.1999999999999993
sg18
F0.20000000000000001
sg19
F0.22
sg20
F0.77000000000000002
sg21
F5.0999999999999996
sg22
g436
sg23
g24
(g26
S'I\x9d\x80&\xc2Hs@'
tRp440
sg28
F-18.890000000000001
sg29
F16.280000000000001
sg30
F0.48999999999999999
sg31
F1.1000000000000001
sg32
(lp441
F9.0999999999999996
aF11.699999999999999
aF-5.0999999999999996
asg34
F12.800000000000001
sg35
F-1.47
sg36
F2
sg37
Nsg38
F0.10000000000000001
sg39
F-398.5
sg40
F0.98999999999999999
sg41
F-7.4500000000000002
sg42
g24
(g26
S'\x91\xed|?5\x9e\x1d@'
tRp442
sg44
Nsg45
Nsg47
F17.350000000000001
sg48
F1.6000000000000001
sg49
F52.100000000000001
sg50
Nsg51
F16.859999999999999
sg52
NsbsS'NGC 6760'
p443
g3
(g4
g5
NtRp444
(dp445
g8
F8.8800000000000008
sg9
F-27.5
sg10
F1.6499999999999999
sg11
S'G5'
p446
sg13
F3.8900000000000001
sg14
F9.0099999999999998
sg15
F7.4000000000000004
sg16
F1.27
sg17
F7.96
sg18
F1.0900000000000001
sg19
F0.34000000000000002
sg20
F1.6599999999999999
sg21
Nsg22
g443
sg23
g24
(g26
S'\xcd\xcc\xcc\xcc\xcc\xfcq@'
tRp447
sg28
F-3.9199999999999999
sg29
F16.719999999999999
sg30
F1.01
sg31
Nsg32
(lp448
F5.9000000000000004
aF4.2999999999999998
aF-0.5
asg34
F4.7999999999999998
sg35
F-0.40000000000000002
sg36
F3
sg37
F0.040000000000000001
sg38
F0.77000000000000002
sg39
F-13.199999999999999
sg40
F2.1200000000000001
sg41
F-7.8399999999999999
sg42
g24
(g26
S'\xb0rh\x91\xed|\xf0?'
tRp449
sg44
Nsg45
Nsg47
F18.66
sg48
F6.2999999999999998
sg49
F36.109999999999999
sg50
Nsg51
F17.460000000000001
sg52
NsbsS'ESO-SC06'
p450
g3
(g4
g5
NtRp451
(dp452
g8
F12
sg9
Nsg10
F0.90000000000000002
sg11
Nsg13
Nsg14
F9.0999999999999996
sg15
F21.399999999999999
sg16
F1.05
sg17
Nsg18
Nsg19
F0.59999999999999998
sg20
Nsg21
Nsg22
g450
sg23
g24
(g26
S'fffff\x04q@'
tRp453
sg28
F-12.57
sg29
F16.870000000000001
sg30
Nsg31
Nsg32
(lp454
F20.399999999999999
aF-4.7000000000000002
aF-4.7000000000000002
asg34
F14
sg35
F-1.8
sg36
F1
sg37
Nsg38
F0.070000000000000007
sg39
Nsg40
Nsg41
F-4.8700000000000001
sg42
g24
(g26
S'\x03x\x0b$(6G\xc0'
tRp455
sg44
Nsg45
S'ESO280-SC06'
p456
sg47
Nsg48
Nsg49
F346.89999999999998
sg50
Nsg51
F17.399999999999999
sg52
NsbsS'NGC 7099'
p457
g3
(g4
g5
NtRp458
(dp459
g8
F7.1900000000000004
sg9
F-184.19999999999999
sg10
F2.5
sg11
S'F3'
p460
sg13
F5.0099999999999998
sg14
F8.8800000000000008
sg15
F8.0999999999999996
sg16
F1.03
sg17
F6.3700000000000001
sg18
F0.029999999999999999
sg19
Nsg20
F0.59999999999999998
sg21
F5.5
sg22
g457
sg23
g24
(g26
S'\x0f\x0b\xb5\xa6yQt@'
tRp461
sg28
F-46.840000000000003
sg29
F14.640000000000001
sg30
F0.40999999999999998
sg31
F0.40000000000000002
sg32
(lp462
F4.9000000000000004
aF2.5
aF-5.9000000000000004
asg34
F7.0999999999999996
sg35
F-2.27
sg36
F4
sg37
F0.01
sg38
F0.029999999999999999
sg39
F-179.59999999999999
sg40
F0.85999999999999999
sg41
F-7.4500000000000002
sg42
g24
(g26
S'\xe7\x8c(\xed\r.7\xc0'
tRp463
sg44
Nsg45
S'M 30'
p464
sg47
F15.35
sg48
F0.20000000000000001
sg49
F27.18
sg50
Nsg51
F15.1
sg52
NsbsS'Liller 1'
p465
g3
(g4
g5
NtRp466
(dp467
g8
F16.77
sg9
F52
sg10
F2.2999999999999998
sg11
Nsg13
F5.2800000000000002
sg14
F0
sg15
F8.1999999999999993
sg16
Nsg17
F6.6200000000000001
sg18
Nsg19
F0.059999999999999998
sg20
Nsg21
Nsg22
g465
sg23
g24
(g26
S'\xbf\x0e\x9c3\xa2up@'
tRp468
sg28
F-0.16
sg29
F24.09
sg30
Nsg31
Nsg32
(lp469
F8.1999999999999993
aF-0.69999999999999996
aF0
asg34
F0.80000000000000004
sg35
F-0.33000000000000002
sg36
F4
sg37
Nsg38
F3.0699999999999998
sg39
F59.200000000000003
sg40
Nsg41
F-7.3200000000000003
sg42
g24
(g26
S'o\x12\x83\xc0\xca\xb1@\xc0'
tRp470
sg44
Nsg45
Nsg47
F24
sg48
F15
sg49
F354.83999999999997
sg50
Nsg51
F24.84
sg52
NsbsS'NGC 6440'
p471
g3
(g4
g5
NtRp472
(dp473
g8
F9.1999999999999993
sg9
F-76.599999999999994
sg10
F1.6200000000000001
sg11
S'G4'
p474
sg13
F5.2400000000000002
sg14
F8.6199999999999992
sg15
F8.5
sg16
F0.47999999999999998
sg17
F7.5999999999999996
sg18
F1.47
sg19
F0.14000000000000001
sg20
F1.97
sg21
Nsg22
g471
sg23
g24
(g26
S':#J{\x83\xb3p@'
tRp475
sg28
F3.7999999999999998
sg29
F17.949999999999999
sg30
F1.24
sg31
Nsg32
(lp476
F8.4000000000000004
aF1.1000000000000001
aF0.59999999999999998
asg34
F1.3
sg35
F-0.35999999999999999
sg36
F6
sg37
F0.01
sg38
F1.0700000000000001
sg39
F-65.900000000000006
sg40
F2.5099999999999998
sg41
F-8.75
sg42
g24
(g26
S'\xea\x044\x116\\4\xc0'
tRp477
sg44
Nsg45
Nsg47
F17.059999999999999
sg48
F2.7000000000000002
sg49
F7.7300000000000004
sg50
Nsg51
F18.699999999999999
sg52
NsbsS'NGC 6441'
p478
g3
(g4
g5
NtRp479
(dp480
g8
F7.1500000000000004
sg9
F16.5
sg10
F1.74
sg11
S'G2'
p481
sg13
F5.2599999999999998
sg14
F9.0899999999999999
sg15
F11.6
sg16
F0.56999999999999995
sg17
F7.9299999999999997
sg18
F0.81000000000000005
sg19
F0.13
sg20
F1.27
sg21
F18
sg22
g478
sg23
g24
(g26
S'p\xce\x88\xd2\xde\xb8p@'
tRp482
sg28
F-5.0099999999999998
sg29
F16.780000000000001
sg30
F0.79000000000000004
sg31
F0.20000000000000001
sg32
(lp483
F11.5
aF-1.3
aF-1
asg34
F3.8999999999999999
sg35
F-0.46000000000000002
sg36
F6
sg37
F0.02
sg38
F0.46999999999999997
sg39
F22.899999999999999
sg40
F1.6200000000000001
sg41
F-9.6300000000000008
sg42
g24
(g26
S'\xd8\x81sF\x94\x86B\xc0'
tRp484
sg44
Nsg45
Nsg47
F14.85
sg48
F1
sg49
F353.52999999999997
sg50
Nsg51
F17.510000000000002
sg52
NsbsS'Pal 13'
p485
g3
(g4
g5
NtRp486
(dp487
g8
F13.470000000000001
sg9
F25.199999999999999
sg10
F0.66000000000000003
sg11
Nsg13
F0.16
sg14
F8.3499999999999996
sg15
F26
sg16
F0.35999999999999999
sg17
F8.3599999999999994
sg18
F-0.11
sg19
F0.47999999999999998
sg20
F0.76000000000000001
sg21
F0.90000000000000002
sg22
g485
sg23
g24
(g26
S'\x82sF\x94\xf6\xaau@'
tRp488
sg28
F-42.700000000000003
sg29
F17.23
sg30
Nsg31
F0.29999999999999999
sg32
(lp489
F1
aF19.100000000000001
aF-17.600000000000001
asg34
F26.899999999999999
sg35
F-1.8799999999999999
sg36
F2
sg37
Nsg38
F0.050000000000000003
sg39
F30.899999999999999
sg40
Nsg41
F-3.7599999999999998
sg42
g24
(g26
S'%\x06\x81\x95C\x8b)@'
tRp490
sg44
Nsg45
Nsg47
F24.309999999999999
sg48
F0.29999999999999999
sg49
F87.099999999999994
sg50
Nsg51
F17.75
sg52
NsbsS'NGC 7078'
p491
g3
(g4
g5
NtRp492
(dp493
g8
F6.2000000000000002
sg9
F-107
sg10
F2.29
sg11
S'F3'
p494
sg13
F5.0499999999999998
sg14
F9.3200000000000003
sg15
F10.4
sg16
F1
sg17
F7.8399999999999999
sg18
F0.059999999999999998
sg19
Nsg20
F0.68000000000000005
sg21
F13.5
sg22
g491
sg23
g24
(g26
S"\xd9\xce\xf7S\xe3't@"
tRp495
sg28
F-27.309999999999999
sg29
F15.390000000000001
sg30
Nsg31
F0.90000000000000002
sg32
(lp496
F3.8999999999999999
aF8.3000000000000007
aF-4.7999999999999998
asg34
F10.4
sg35
F-2.3700000000000001
sg36
F11
sg37
Nsg38
F0.10000000000000001
sg39
F-96
sg40
F0.84999999999999998
sg41
F-9.1899999999999995
sg42
g24
(g26
S'/\xdd$\x06\x81U(@'
tRp497
sg44
Nsg45
S'M 15'
p498
sg47
F14.210000000000001
sg48
F0.20000000000000001
sg49
F65.010000000000005
sg50
Nsg51
F15.83
sg52
NsbsS'NGC 6838'
p499
g3
(g4
g5
NtRp500
(dp501
g8
F8.1899999999999995
sg9
F-22.800000000000001
sg10
F1.1499999999999999
sg11
S'G1'
p502
sg13
F2.8300000000000001
sg14
F8.4299999999999997
sg15
F4
sg16
F1.6699999999999999
sg17
F7.54
sg18
F0.63
sg19
F0.63
sg20
F1.0900000000000001
sg21
F2.2999999999999998
sg22
g499
sg23
g24
(g26
S'\xc3\xd3+e\x19\xa7r@'
tRp503
sg28
F-4.5599999999999996
sg29
F13.800000000000001
sg30
F0.63
sg31
F0.20000000000000001
sg32
(lp504
F2.2000000000000002
aF3.3999999999999999
aF-0.29999999999999999
asg34
F6.7000000000000002
sg35
F-0.78000000000000003
sg36
F11
sg37
F0
sg38
F0.25
sg39
F-7.5
sg40
F1.3600000000000001
sg41
F-5.6100000000000003
sg42
g24
(g26
S'\x0f\x0b\xb5\xa6y\xc72@'
tRp505
sg44
Nsg45
S'M 71'
p506
sg47
F19.75
sg48
F0.20000000000000001
sg49
F56.75
sg50
Nsg51
F14.48
sg52
NsbsS'BH 176'
p507
g3
(g4
g5
NtRp508
(dp509
g8
F14
sg9
Nsg10
F0.84999999999999998
sg11
Nsg13
F0.96999999999999997
sg14
F8.7899999999999991
sg15
F18.899999999999999
sg16
F0.90000000000000002
sg17
F9.1400000000000006
sg18
Nsg19
F0.90000000000000002
sg20
Nsg21
Nsg22
g507
sg23
g24
(g26
S'\xa2E\xb6\xf3\xfdXm@'
tRp510
sg28
F4.3399999999999999
sg29
F18.059999999999999
sg30
Nsg31
Nsg32
(lp511
F16.100000000000001
aF-9.9000000000000004
aF1.3999999999999999
asg34
F12.9
sg35
F0
sg36
F1
sg37
Nsg38
F0.54000000000000004
sg39
Nsg40
Nsg41
F-4.0599999999999996
sg42
g24
(g26
S'\xe6?\xa4\xdf\xbe\x06I\xc0'
tRp512
sg44
Nsg45
Nsg47
F23.359999999999999
sg48
Nsg49
F328.41000000000003
sg50
Nsg51
F18.859999999999999
sg52
NsbsS'Terzan 12'
p513
g3
(g4
g5
NtRp514
(dp515
g8
F15.630000000000001
sg9
F94.099999999999994
sg10
F0.56999999999999995
sg11
Nsg13
F3.3999999999999999
sg14
F7.7800000000000002
sg15
F4.7999999999999998
sg16
F0.75
sg17
F8.4600000000000009
sg18
Nsg19
F0.82999999999999996
sg20
Nsg21
Nsg22
g513
sg23
g24
(g26
S';\x01M\x84\r\x11q@'
tRp516
sg28
F-2.1000000000000001
sg29
F19.77
sg30
Nsg31
Nsg32
(lp517
F4.7000000000000002
aF0.69999999999999996
aF-0.20000000000000001
asg34
F3.3999999999999999
sg35
F-0.5
sg36
F1
sg37
Nsg38
F2.0600000000000001
sg39
F104.2
sg40
Nsg41
F-4.1399999999999997
sg42
g24
(g26
S'\x04\xe7\x8c(\xed\xbd6\xc0'
tRp518
sg44
Nsg45
Nsg47
F23.75
sg48
F1.5
sg49
F8.3699999999999992
sg50
Nsg51
F20.5
sg52
NsbsS'Terzan 10'
p519
g3
(g4
g5
NtRp520
(dp521
g8
F14.9
sg9
Nsg10
F0.75
sg11
Nsg13
F4.6399999999999997
sg14
F8.7400000000000002
sg15
F5.7999999999999998
sg16
F1.55
sg17
F9.3399999999999999
sg18
Nsg19
F0.90000000000000002
sg20
Nsg21
Nsg22
g519
sg23
g24
(g26
S'\xda\xac\xfa\\m\xeep@'
tRp522
sg28
F-1.99
sg29
F21.25
sg30
Nsg31
Nsg32
(lp523
F5.7999999999999998
aF0.5
aF-0.20000000000000001
asg34
F2.2999999999999998
sg35
F-1
sg36
F1
sg37
Nsg38
F2.3999999999999999
sg39
Nsg40
Nsg41
F-6.3499999999999996
sg42
g24
(g26
S'\xc3\xf5(\\\x8f\x12:\xc0'
tRp524
sg44
Nsg45
Nsg47
F21.280000000000001
sg48
Nsg49
F4.4900000000000002
sg50
Nsg51
F21.899999999999999
sg52
NsbsS'NGC 5824'
p525
g3
(g4
g5
NtRp526
(dp527
g8
F9.0899999999999999
sg9
F-27.5
sg10
F1.98
sg11
S'F4'
p528
sg13
F4.6100000000000003
sg14
F9.4700000000000006
sg15
F32.100000000000001
sg16
F0.45000000000000001
sg17
F7.9100000000000001
sg18
F0.12
sg19
F0.059999999999999998
sg20
F0.75
sg21
F11.6
sg22
g525
sg23
g24
(g26
S'6\xcd;N\xd1?l@'
tRp529
sg28
F22.07
sg29
F17.940000000000001
sg30
F0.51000000000000001
sg31
F0.5
sg32
(lp530
F26.399999999999999
aF-13.699999999999999
aF12.1
asg34
F25.899999999999999
sg35
F-1.9099999999999999
sg36
F4
sg37
F0.029999999999999999
sg38
F0.13
sg39
F-23.800000000000001
sg40
F1.05
sg41
F-8.8499999999999996
sg42
g24
(g26
S')\xcb\x10\xc7\xba\x88@\xc0'
tRp531
sg44
Nsg45
Nsg47
F15.18
sg48
F1.5
sg49
F332.56
sg50
Nsg51
F18.449999999999999
sg52
NsbsS'NGC 6273'
p532
g3
(g4
g5
NtRp533
(dp534
g8
F6.7699999999999996
sg9
F135
sg10
F1.53
sg11
S'F7'
p535
sg13
F3.98
sg14
F9.3800000000000008
sg15
F8.8000000000000007
sg16
F1.3200000000000001
sg17
F8.5199999999999996
sg18
F0.34999999999999998
sg19
F0.42999999999999999
sg20
F1.03
sg21
Nsg22
g532
sg23
g24
(g26
S'\xd7\xa3p=\n\xf5o@'
tRp536
sg28
F9.3800000000000008
sg29
F15.9
sg30
F0.66000000000000003
sg31
Nsg32
(lp537
F8.6999999999999993
aF-0.5
aF1.3999999999999999
asg34
F1.7
sg35
F-1.74
sg36
F4
sg37
F0.27000000000000002
sg38
F0.38
sg39
F143.80000000000001
sg40
F1.3500000000000001
sg41
F-9.1300000000000008
sg42
g24
(g26
S'\xf8S\xe3\xa5\x9bD:\xc0'
tRp538
sg44
Nsg45
S'M 19'
p539
sg47
F16.77
sg48
F4.0999999999999996
sg49
F356.87
sg50
Nsg51
F16.440000000000001
sg52
NsbsS'AM 1'
p540
g3
(g4
g5
NtRp541
(dp542
g8
F15.720000000000001
sg9
F116
sg10
F1.3600000000000001
sg11
Nsg13
F0.029999999999999999
sg14
F9.6099999999999994
sg15
F123.3
sg16
F0.40999999999999998
sg17
F8.9600000000000009
sg18
Nsg19
F0.17000000000000001
sg20
F0.71999999999999997
sg21
Nsg22
g540
sg23
g24
(g26
S'S\x05\xa3\x92:aM@'
tRp543
sg28
F-48.469999999999999
sg29
F20.449999999999999
sg30
Nsg31
Nsg32
(lp544
F-16.5
aF-80.099999999999994
aF-92.299999999999997
asg34
F124.59999999999999
sg35
F-1.7
sg36
F2
sg37
Nsg38
F0
sg39
F101.3
sg40
Nsg41
F-4.7300000000000004
sg42
g24
(g26
S'I\x9d\x80&\xc2\xceH\xc0'
tRp545
sg44
Nsg45
S'E 1'
p546
sg47
F23.620000000000001
sg48
F20
sg49
F258.33999999999997
sg50
Nsg51
F21
sg52
NsbsS'AM 4'
p547
g3
(g4
g5
NtRp548
(dp549
g8
F15.880000000000001
sg9
Nsg10
F0.69999999999999996
sg11
Nsg13
F-0.050000000000000003
sg14
F8.3200000000000003
sg15
F32.200000000000003
sg16
F0.42999999999999999
sg17
F8.4199999999999999
sg18
Nsg19
F0.40999999999999998
sg20
Nsg21
Nsg22
g547
sg23
g24
(g26
S'\xdeq\x8a\x8e\xe4"j@'
tRp550
sg28
F33.509999999999998
sg29
F17.690000000000001
sg30
Nsg31
Nsg32
(lp551
F20.699999999999999
aF-17.199999999999999
aF17.800000000000001
asg34
F27.800000000000001
sg35
F-1.3
sg36
F1
sg37
Nsg38
F0.050000000000000003
sg39
Nsg40
Nsg41
F-1.8100000000000001
sg42
g24
(g26
S'{\x14\xaeG\xe1*;\xc0'
tRp552
sg44
Nsg45
Nsg47
F24.75
sg48
Nsg49
F320.27999999999997
sg50
Nsg51
F18.300000000000001
sg52
NsbsS'NGC 6864'
p553
g3
(g4
g5
NtRp554
(dp555
g8
F8.5199999999999996
sg9
F-189.30000000000001
sg10
F1.8
sg11
S'F9'
p556
sg13
F4.5099999999999998
sg14
F9.1500000000000004
sg15
F20.899999999999999
sg16
F0.46000000000000002
sg17
F7.8899999999999997
sg18
F0.28000000000000003
sg19
F0.089999999999999997
sg20
F0.87
sg21
F10.300000000000001
sg22
g553
sg23
g24
(g26
S'Zd;\xdfO\xd8r@'
tRp557
sg28
F-25.75
sg29
F17.09
sg30
F0.55000000000000004
sg31
F1.5
sg32
(lp558
F17.600000000000001
aF6.5
aF-9.0999999999999996
asg34
F14.699999999999999
sg35
F-1.29
sg36
F3
sg37
F0.070000000000000007
sg38
F0.16
sg39
F-180.80000000000001
sg40
F1.1599999999999999
sg41
F-8.5700000000000003
sg42
g24
(g26
S'@\x13a\xc3\xd3\xeb5\xc0'
tRp559
sg44
Nsg45
S'M 75'
p560
sg47
F15.52
sg48
F3.6000000000000001
sg49
F20.300000000000001
sg50
Nsg51
F17.699999999999999
sg52
NsbsS'NGC 1851'
p561
g3
(g4
g5
NtRp562
(dp563
g8
F7.1399999999999997
sg9
F320.5
sg10
F1.8600000000000001
sg11
S'F7'
p564
sg13
F5.0899999999999999
sg14
F8.8200000000000003
sg15
F12.1
sg16
F0.51000000000000001
sg17
F7.4299999999999997
sg18
F0.17000000000000001
sg19
F0.089999999999999997
sg20
F0.76000000000000001
sg21
F10.4
sg22
g561
sg23
g24
(g26
S'\xd2o_\x07\xce\xa1S@'
tRp565
sg28
F-35.030000000000001
sg29
F15.470000000000001
sg30
F0.48999999999999999
sg31
F0.5
sg32
(lp566
F-4.2000000000000002
aF-8.9000000000000004
aF-6.9000000000000004
asg34
F16.600000000000001
sg35
F-1.1799999999999999
sg36
F9
sg37
F0.050000000000000003
sg38
F0.02
sg39
F303.80000000000001
sg40
F1.01
sg41
F-8.3300000000000001
sg42
g24
(g26
S'.\xff!\xfd\xf6\x05D\xc0'
tRp567
sg44
Nsg45
Nsg47
F14.25
sg48
F0.59999999999999998
sg49
F244.50999999999999
sg50
Nsg51
F16.09
sg52
NsbsS'Arp 2'
p568
g3
(g4
g5
NtRp569
(dp570
g8
F12.300000000000001
sg9
F115
sg10
F0.88
sg11
Nsg13
F-0.25
sg14
F9.6999999999999993
sg15
F28.600000000000001
sg16
F1.77
sg17
F9.3900000000000006
sg18
Nsg19
F1.1899999999999999
sg20
F0.85999999999999999
sg21
Nsg22
g568
sg23
g24
(g26
S'\x14\xd0D\xd8\xf0Br@'
tRp571
sg28
F-20.789999999999999
sg29
F17.59
sg30
Nsg31
Nsg32
(lp572
F26.399999999999999
aF4
aF-10.199999999999999
asg34
F21.399999999999999
sg35
F-1.75
sg36
F5
sg37
Nsg38
F0.10000000000000001
sg39
F122.40000000000001
sg40
Nsg41
F-5.29
sg42
g24
(g26
S'%u\x02\x9a\x08[>\xc0'
tRp573
sg44
Nsg45
Nsg47
F24.260000000000002
sg48
F10
sg49
F8.5500000000000007
sg50
Nsg51
F18.129999999999999
sg52
NsbsS'NGC 6453'
p574
g3
(g4
g5
NtRp575
(dp576
g8
F10.08
sg9
F-83.700000000000003
sg10
F2.5
sg11
S'F8'
p577
sg13
F4.9500000000000002
sg14
F8.5199999999999996
sg15
F11.6
sg16
F0.44
sg17
F6.7300000000000004
sg18
F0.68000000000000005
sg19
Nsg20
F1.3100000000000001
sg21
Nsg22
g574
sg23
g24
(g26
S'\xef8EGr\xbbp@'
tRp578
sg28
F-3.8700000000000001
sg29
F17.300000000000001
sg30
F0.98999999999999999
sg31
Nsg32
(lp579
F11.5
aF-0.90000000000000002
aF-0.80000000000000004
asg34
F3.7000000000000002
sg35
F-1.5
sg36
F4
sg37
F0.089999999999999997
sg38
F0.64000000000000001
sg39
F-76.700000000000003
sg40
F2
sg41
F-7.2199999999999998
sg42
g24
(g26
S'\xb1\xe1\xe9\x95\xb2LA\xc0'
tRp580
sg44
Nsg45
Nsg47
F17.07
sg48
F8.3000000000000007
sg49
F355.72000000000003
sg50
Nsg51
F17.879999999999999
sg52
NsbsS'NGC 6293'
p581
g3
(g4
g5
NtRp582
(dp583
g8
F8.2200000000000006
sg9
F-146.19999999999999
sg10
F2.5
sg11
S'F3'
p584
sg13
F5.3099999999999996
sg14
F8.9399999999999995
sg15
F9.5
sg16
F0.89000000000000001
sg17
F6.3799999999999999
sg18
F0.28999999999999998
sg19
Nsg20
F0.95999999999999996
sg21
F7.7000000000000002
sg22
g581
sg23
g24
(g26
S'H\xe1z\x14\xae\x18p@'
tRp585
sg28
F7.8300000000000001
sg29
F16
sg30
F0.63
sg31
F1.3
sg32
(lp586
F9.4000000000000004
aF-0.40000000000000002
aF1.3
asg34
F1.8999999999999999
sg35
F-1.99
sg36
F5
sg37
F0.029999999999999999
sg38
F0.35999999999999999
sg39
F-137.40000000000001
sg40
F1.28
sg41
F-7.7800000000000002
sg42
g24
(g26
S'i\x00o\x81\x04\x95:\xc0'
tRp587
sg44
Nsg45
Nsg47
F15.720000000000001
sg48
F1.7
sg49
F357.62
sg50
Nsg51
F16.5
sg52
NsbsS'GLIMPSE01'
p588
g3
(g4
g5
NtRp589
(dp590
g8
F22.239999999999998
sg9
Nsg10
F1.3700000000000001
sg11
Nsg13
Nsg14
F7.8899999999999997
sg15
F4.2000000000000002
sg16
F0.65000000000000002
sg17
Nsg18
Nsg19
F0.58999999999999997
sg20
Nsg21
Nsg22
g588
sg23
g24
(g26
S'\x07\xf0\x16HP\xa3q@'
tRp591
sg28
F-0.10000000000000001
sg29
F28.149999999999999
sg30
Nsg31
Nsg32
(lp592
F3.6000000000000001
aF2.2000000000000002
aF0
asg34
F4.9000000000000004
sg35
Nsg36
F0
sg37
Nsg38
F4.8499999999999996
sg39
Nsg40
Nsg41
F-5.9100000000000001
sg42
g24
(g26
S'\xa3#\xb9\xfc\x87\xf4\xf7\xbf'
tRp593
sg44
Nsg45
Nsg47
Nsg48
Nsg49
F31.309999999999999
sg50
Nsg51
F28.800000000000001
sg52
NsbsS'GLIMPSE02'
p594
g3
(g4
g5
NtRp595
(dp596
g8
Nsg9
Nsg10
F1.3300000000000001
sg11
Nsg13
Nsg14
Nsg15
F5.5
sg16
Nsg17
Nsg18
Nsg19
F0.69999999999999996
sg20
Nsg21
Nsg22
g594
sg23
g24
(g26
S'%u\x02\x9a\x08*q@'
tRp597
sg28
F-0.64000000000000001
sg29
F38.049999999999997
sg30
Nsg31
Nsg32
(lp598
F5.4000000000000004
aF1.3999999999999999
aF-0.10000000000000001
asg34
F3
sg35
F-0.33000000000000002
sg36
F1
sg37
Nsg38
F7.8499999999999996
sg39
Nsg40
Nsg41
Nsg42
g24
(g26
S'\xb5\xa6y\xc7)\xfa0\xc0'
tRp599
sg44
Nsg45
Nsg47
Nsg48
Nsg49
F14.140000000000001
sg50
Nsg51
F38.799999999999997
sg52
NsbsS'IC 1276'
p600
g3
(g4
g5
NtRp601
(dp602
g8
F10.34
sg9
F155.69999999999999
sg10
F1.3300000000000001
sg11
Nsg13
F2.7799999999999998
sg14
F9.0299999999999994
sg15
F5.4000000000000004
sg16
F2.3799999999999999
sg17
F8.4600000000000009
sg18
F1.03
sg19
F1.01
sg20
F1.76
sg21
Nsg22
g600
sg23
g24
(g26
S'\xc5\xfe\xb2{\xf2\nq@'
tRp603
sg28
F5.6699999999999999
sg29
F17.010000000000002
sg30
Nsg31
Nsg32
(lp604
F5
aF2
aF0.5
asg34
F3.7000000000000002
sg35
F-0.75
sg36
F1
sg37
Nsg38
F1.0800000000000001
sg39
F169.19999999999999
sg40
Nsg41
F-6.6699999999999999
sg42
g24
(g26
S'1\x99*\x18\x95\xd4\x1c\xc0'
tRp605
sg44
Nsg45
S'Pal 7'
p606
sg47
F21.600000000000001
sg48
F1.3
sg49
F21.829999999999998
sg50
Nsg51
F17.699999999999999
sg52
NsbsS'NGC 4833'
p607
g3
(g4
g5
NtRp608
(dp609
g8
F6.9100000000000001
sg9
F200.19999999999999
sg10
F1.25
sg11
S'F3'
p610
sg13
F3
sg14
F9.4199999999999999
sg15
F6.5999999999999996
sg16
F2.4100000000000001
sg17
F8.7799999999999994
sg18
F0.28999999999999998
sg19
F1
sg20
F0.93000000000000005
sg21
Nsg22
g607
sg23
g24
(g26
S'\x98\xdd\x93\x87\x85\\h@'
tRp611
sg28
F-8.0199999999999996
sg29
F15.08
sg30
F0.63
sg31
Nsg32
(lp612
F3.6000000000000001
aF-5.4000000000000004
aF-0.90000000000000002
asg34
F7
sg35
F-1.8500000000000001
sg36
F4
sg37
F0.070000000000000007
sg38
F0.32000000000000001
sg39
F192.90000000000001
sg40
F1.3300000000000001
sg41
F-8.1699999999999999
sg42
g24
(g26
S'j\xbct\x93\x18\xb8Q\xc0'
tRp613
sg44
Nsg45
Nsg47
F18.48
sg48
F1.2
sg49
F303.60000000000002
sg50
Nsg51
F15.6
sg52
NsbsS'NGC 5927'
p614
g3
(g4
g5
NtRp615
(dp616
g8
F8.0099999999999998
sg9
F-107.5
sg10
F1.6000000000000001
sg11
S'G2'
p617
sg13
F4.0899999999999999
sg14
F8.9399999999999995
sg15
F7.7000000000000002
sg16
F1.1000000000000001
sg17
F8.3900000000000006
sg18
F0.84999999999999998
sg19
F0.41999999999999998
sg20
F1.3100000000000001
sg21
Nsg22
g614
sg23
g24
(g26
S'\x12\xa5\xbd\xc1\x17\x00m@'
tRp618
sg28
F4.8600000000000003
sg29
F15.82
sg30
F0.79000000000000004
sg31
Nsg32
(lp619
F6.4000000000000004
aF-4.2000000000000002
aF0.69999999999999996
asg34
F4.5999999999999996
sg35
F-0.48999999999999999
sg36
F5
sg37
F0.040000000000000001
sg38
F0.45000000000000001
sg39
F-107.2
sg40
F1.6299999999999999
sg41
F-7.8099999999999996
sg42
g24
(g26
S'\xa0\x1a/\xdd$VI\xc0'
tRp620
sg44
Nsg45
Nsg47
F16.91
sg48
F0.90000000000000002
sg49
F326.60000000000002
sg50
Nsg51
F16.550000000000001
sg52
NsbsS'HP 1'
p621
g3
(g4
g5
NtRp622
(dp623
g8
F11.59
sg9
F45.799999999999997
sg10
F2.5
sg11
Nsg13
F4.3300000000000001
sg14
F9.4399999999999995
sg15
F8.1999999999999993
sg16
F3.1000000000000001
sg17
F5.0300000000000002
sg18
Nsg19
Nsg20
Nsg21
Nsg22
g621
sg23
g24
(g26
S',e\x19\xe2Xlp@'
tRp624
sg28
F2.1200000000000001
sg29
F18.050000000000001
sg30
Nsg31
Nsg32
(lp625
F8.1999999999999993
aF-0.40000000000000002
aF0.29999999999999999
asg34
F0.5
sg35
F-1
sg36
F4
sg37
Nsg38
F1.1200000000000001
sg39
F54
sg40
Nsg41
F-6.46
sg42
g24
(g26
S'\xb3{\xf2\xb0P\xfb=\xc0'
tRp626
sg44
Nsg45
S'BH 229'
p627
sg47
F21.289999999999999
sg48
F0.69999999999999996
sg49
F357.44
sg50
Nsg51
F18.699999999999999
sg52
NsbsS'Djorg 1'
p628
g3
(g4
g5
NtRp629
(dp630
g8
F13.6
sg9
F-362.39999999999998
sg10
F1.5
sg11
Nsg13
F2.6800000000000002
sg14
F0
sg15
F13.699999999999999
sg16
F1.5900000000000001
sg17
F8.7100000000000009
sg18
Nsg19
F0.5
sg20
Nsg21
Nsg22
g628
sg23
g24
(g26
S'-C\x1c\xeb\xe2\xadp@'
tRp631
sg28
F-2.4700000000000002
sg29
F20.579999999999998
sg30
Nsg31
Nsg32
(lp632
F13.6
aF-0.80000000000000004
aF-0.59999999999999998
asg34
F5.7000000000000002
sg35
F-1.51
sg36
F1
sg37
Nsg38
F1.5800000000000001
sg39
F-355
sg40
Nsg41
F-6.9800000000000004
sg42
g24
(g26
S'\x0eO\xaf\x94e\x88@\xc0'
tRp633
sg44
Nsg45
Nsg47
F23.100000000000001
sg48
F3.6000000000000001
sg49
F356.69
sg50
Nsg51
F21.149999999999999
sg52
NsbsS'NGC 6809'
p634
g3
(g4
g5
NtRp635
(dp636
g8
F6.3200000000000003
sg9
F174.69999999999999
sg10
F0.93000000000000005
sg11
S'F4'
p637
sg13
F2.2200000000000002
sg14
F9.2899999999999991
sg15
F5.4000000000000004
sg16
F2.8300000000000001
sg17
F8.9000000000000004
sg18
F0.11
sg19
F1.8
sg20
F0.71999999999999997
sg21
F4
sg22
g634
sg23
g24
(g26
S'\xebs\xb5\x15\xfbor@'
tRp638
sg28
F-23.27
sg29
F13.890000000000001
sg30
F0.47999999999999998
sg31
F0.29999999999999999
sg32
(lp639
F4.9000000000000004
aF0.80000000000000004
aF-2.1000000000000001
asg34
F3.8999999999999999
sg35
F-1.9399999999999999
sg36
F4
sg37
F0.02
sg38
F0.080000000000000002
sg39
F181.80000000000001
sg40
F1
sg41
F-7.5700000000000003
sg42
g24
(g26
S'I.\xff!\xfd\xf6>\xc0'
tRp640
sg44
Nsg45
S'M 55'
p641
sg47
F19.359999999999999
sg48
F0.29999999999999999
sg49
F8.7899999999999991
sg50
Nsg51
F14.4
sg52
NsbsS'2MS-GC01'
p642
g3
(g4
g5
NtRp643
(dp644
g8
F27.739999999999998
sg9
Nsg10
F0.84999999999999998
sg11
Nsg13
Nsg14
F8.4299999999999997
sg15
F3.6000000000000001
sg16
F1.6499999999999999
sg17
Nsg18
Nsg19
F0.84999999999999998
sg20
Nsg21
Nsg22
g642
sg23
g24
(g26
S'M\xf3\x8eSt\x01q@'
tRp645
sg28
F0.11
sg29
F33.850000000000001
sg30
Nsg31
Nsg32
(lp646
F3.5
aF0.69999999999999996
aF0
asg34
F4.5
sg35
Nsg36
F0
sg37
Nsg38
F6.7999999999999998
sg39
Nsg40
Nsg41
F-6.1100000000000003
sg42
g24
(g26
S'\xbf}\x1d8g\xd43\xc0'
tRp647
sg44
Nsg45
S'2MASS-GC01'
p648
sg47
Nsg48
Nsg49
F10.48
sg50
Nsg51
F34.5
sg52
NsbsS'NGC 6637'
p649
g3
(g4
g5
NtRp650
(dp651
g8
F7.6399999999999997
sg9
F39.899999999999999
sg10
F1.3799999999999999
sg11
S'G2'
p652
sg13
F3.8399999999999999
sg14
F8.8200000000000003
sg15
F8.8000000000000007
sg16
F0.83999999999999997
sg17
F8.1500000000000004
sg18
F0.47999999999999998
sg19
F0.33000000000000002
sg20
F1.01
sg21
Nsg22
g649
sg23
g24
(g26
S'\x01\xde\x02\t\x8a]q@'
tRp653
sg28
F-10.27
sg29
F15.279999999999999
sg30
F0.62
sg31
Nsg32
(lp654
F8.5999999999999996
aF0.29999999999999999
aF-1.6000000000000001
asg34
F1.7
sg35
F-0.64000000000000001
sg36
F4
sg37
Nsg38
F0.17999999999999999
sg39
F47.5
sg40
F1.28
sg41
F-7.6399999999999997
sg42
g24
(g26
S'j\xdeq\x8a\x8e,@\xc0'
tRp655
sg44
Nsg45
S'M 69'
p656
sg47
F16.82
sg48
F2.7999999999999998
sg49
F1.72
sg50
Nsg51
F15.98
sg52
NsbsS'NGC 3201'
p657
g3
(g4
g5
NtRp658
(dp659
g8
F6.75
sg9
F494
sg10
F1.29
sg11
S'F6'
p660
sg13
F2.71
sg14
F9.2699999999999996
sg15
F4.9000000000000004
sg16
F3.1000000000000001
sg17
F8.6099999999999994
sg18
F0.38
sg19
F1.3
sg20
F0.95999999999999996
sg21
F5
sg22
g657
sg23
g24
(g26
S'\x9b\xe6\x1d\xa7\xe8Lc@'
tRp661
sg28
F8.6400000000000006
sg29
F14.199999999999999
sg30
F0.62
sg31
F0.20000000000000001
sg32
(lp662
F0.59999999999999998
aF-4.7999999999999998
aF0.69999999999999996
asg34
F8.8000000000000007
sg35
F-1.5900000000000001
sg36
F5
sg37
F0.12
sg38
F0.23999999999999999
sg39
F482.89999999999998
sg40
F1.23
sg41
F-7.4500000000000002
sg42
g24
(g26
S'\xcd\xcc\xcc\xcc\xcc4G\xc0'
tRp663
sg44
Nsg45
Nsg47
F19
sg48
F0.20000000000000001
sg49
F277.23000000000002
sg50
Nsg51
F14.76
sg52
NsbsS'NGC 6681'
p664
g3
(g4
g5
NtRp665
(dp666
g8
F7.8700000000000001
sg9
F220.30000000000001
sg10
F2.5
sg11
S'F5'
p667
sg13
F5.8200000000000003
sg14
F8.6500000000000004
sg15
F9
sg16
F0.70999999999999996
sg17
F5.8200000000000003
sg18
F0.12
sg19
Nsg20
F0.71999999999999997
sg21
F5.2000000000000002
sg22
g664
sg23
g24
(g26
S'[B>\xe8\xd9\x8cq@'
tRp668
sg28
F-12.51
sg29
F14.99
sg30
F0.46999999999999997
sg31
F0.5
sg32
(lp669
F8.8000000000000007
aF0.40000000000000002
aF-2
asg34
F2.2000000000000002
sg35
F-1.6200000000000001
sg36
F3
sg37
F0.01
sg38
F0.070000000000000007
sg39
F227.80000000000001
sg40
F0.98999999999999999
sg41
F-7.1200000000000001
sg42
g24
(g26
S'\xaf\x94e\x88c%@\xc0'
tRp670
sg44
Nsg45
S'M 70'
p671
sg47
F14.25
sg48
F0.90000000000000002
sg49
F2.8500000000000001
sg50
Nsg51
F15.550000000000001
sg52
NsbsS'NGC 6205'
p672
g3
(g4
g5
NtRp673
(dp674
g8
F5.7800000000000002
sg9
F-244.19999999999999
sg10
F1.53
sg11
S'F6'
p675
sg13
F3.5499999999999998
sg14
F9.3000000000000007
sg15
F7.0999999999999996
sg16
F1.6899999999999999
sg17
F8.5099999999999998
sg18
F-0.02
sg19
F0.62
sg20
F0.68000000000000005
sg21
F7.0999999999999996
sg22
g672
sg23
g24
(g26
S'}\xae\xb6b\x7fMo@'
tRp676
sg28
F40.909999999999997
sg29
F14.33
sg30
Nsg31
F0.40000000000000002
sg32
(lp677
F2.7999999999999998
aF4.5999999999999996
aF4.7000000000000002
asg34
F8.4000000000000004
sg35
F-1.53
sg36
F13
sg37
F0.11
sg38
F0.02
sg39
F-228
sg40
F0.85999999999999999
sg41
F-8.5500000000000007
sg42
g24
(g26
S'\x17\xb7\xd1\x00\xde:B@'
tRp678
sg44
Nsg45
S'M 13'
p679
sg47
F16.59
sg48
F0.20000000000000001
sg49
F59.009999999999998
sg50
Nsg51
F14.9
sg52
NsbsS'NGC 6569'
p680
g3
(g4
g5
NtRp681
(dp682
g8
F8.5500000000000007
sg9
F-28.100000000000001
sg10
F1.3100000000000001
sg11
S'G1'
p683
sg13
F3.6299999999999999
sg14
F9.0500000000000007
sg15
F10.9
sg16
F0.80000000000000004
sg17
F8.3800000000000008
sg18
F0.73999999999999999
sg19
F0.34999999999999998
sg20
F1.3400000000000001
sg21
Nsg22
g680
sg23
g24
(g26
S'6<\xbdR\x96\x16q@'
tRp684
sg28
F-6.6799999999999997
sg29
F16.829999999999998
sg30
F0.82999999999999996
sg31
Nsg32
(lp685
F10.800000000000001
aF0.10000000000000001
aF-1.3
asg34
F3.1000000000000001
sg35
F-0.76000000000000001
sg36
F4
sg37
F0
sg38
F0.53000000000000003
sg39
F-20.300000000000001
sg40
F1.6899999999999999
sg41
F-8.2799999999999994
sg42
g24
(g26
S'\xf9\x0f\xe9\xb7\xaf\xd3?\xc0'
tRp686
sg44
Nsg45
Nsg47
F18.149999999999999
sg48
F5.5999999999999996
sg49
F0.47999999999999998
sg50
Nsg51
F17.52
sg52
NsbsS'NGC 6341'
p687
g3
(g4
g5
NtRp688
(dp689
g8
F6.4400000000000004
sg9
F-120
sg10
F1.6799999999999999
sg11
S'F2'
p690
sg13
F4.2999999999999998
sg14
F9.0199999999999996
sg15
F8.3000000000000007
sg16
F1.02
sg17
F7.96
sg18
F0.01
sg19
F0.26000000000000001
sg20
F0.63
sg21
F6
sg22
g687
sg23
g24
(g26
S'x\x0b$(~4p@'
tRp691
sg28
F34.859999999999999
sg29
F14.65
sg30
Nsg31
F0.40000000000000002
sg32
(lp692
F2.5
aF6.2999999999999998
aF4.7000000000000002
asg34
F9.5999999999999996
sg35
F-2.3100000000000001
sg36
F8
sg37
F0.10000000000000001
sg38
F0.02
sg39
F-103.5
sg40
F0.88
sg41
F-8.2100000000000009
sg42
g24
(g26
S'a\xc3\xd3+e\x91E@'
tRp693
sg44
Nsg45
S'M 92'
p694
sg47
F15.470000000000001
sg48
F0.10000000000000001
sg49
F68.340000000000003
sg50
Nsg51
F15.1
sg52
NsbsS'NGC 6362'
p695
g3
(g4
g5
NtRp696
(dp697
g8
F7.7300000000000004
sg9
F-13.1
sg10
F1.0900000000000001
sg11
S'G3'
p698
sg13
F2.29
sg14
F9.1999999999999993
sg15
F7.5999999999999996
sg16
F2.0499999999999998
sg17
F8.8000000000000007
sg18
F0.28999999999999998
sg19
F1.1299999999999999
sg20
F0.84999999999999998
sg21
F2.7999999999999998
sg22
g695
sg23
g24
(g26
S'8\xf8\xc2d\xaaop@'
tRp699
sg28
F-17.57
sg29
F14.68
sg30
F0.56000000000000005
sg31
F0.40000000000000002
sg32
(lp700
F6
aF-4.0999999999999996
aF-2.2999999999999998
asg34
F5.0999999999999996
sg35
F-0.98999999999999999
sg36
F4
sg37
F0.070000000000000007
sg38
F0.089999999999999997
sg39
F-15.6
sg40
F1.1399999999999999
sg41
F-6.9500000000000002
sg42
g24
(g26
S'e\x19\xe2X\x17\xc3P\xc0'
tRp701
sg44
Nsg45
Nsg47
F19.309999999999999
sg48
F0.59999999999999998
sg49
F325.55000000000001
sg50
Nsg51
F15.33
sg52
NsbsS'NGC 6366'
p702
g3
(g4
g5
NtRp703
(dp704
g8
F9.1999999999999993
sg9
F-122.2
sg10
F0.73999999999999999
sg11
Nsg13
F2.3900000000000001
sg14
F8.7300000000000004
sg15
F3.5
sg16
F2.9199999999999999
sg17
F8.7400000000000002
sg18
F0.96999999999999997
sg19
F2.1699999999999999
sg20
F1.4399999999999999
sg21
F1.3
sg22
g702
sg23
g24
(g26
S'r\x8a\x8e\xe4\xf2^p@'
tRp705
sg28
F16.039999999999999
sg29
F14.94
sg30
Nsg31
F0.5
sg32
(lp706
F3.2000000000000002
aF1.1000000000000001
aF1
asg34
F5
sg35
F-0.58999999999999997
sg36
F3
sg37
F0.16
sg38
F0.70999999999999996
sg39
F-108.59999999999999
sg40
Nsg41
F-5.7400000000000002
sg42
g24
(g26
S'6\xcd;N\xd1Q\x14\xc0'
tRp707
sg44
Nsg45
Nsg47
F21.25
sg48
F0.5
sg49
F18.41
sg50
Nsg51
F15.65
sg52
NsbsS'Pyxis'
p708
g3
(g4
g5
NtRp709
(dp710
g8
F12.9
sg9
F34.299999999999997
sg10
Nsg11
Nsg13
Nsg14
Nsg15
F39.399999999999999
sg16
Nsg17
Nsg18
Nsg19
Nsg20
Nsg21
Nsg22
g708
sg23
g24
(g26
S'\x0f\x9c3\xa2\xb4\x1fa@'
tRp711
sg28
F7
sg29
F18.629999999999999
sg30
Nsg31
Nsg32
(lp712
F-5.9000000000000004
aF-38.700000000000003
aF4.7999999999999998
asg34
F41.399999999999999
sg35
F-1.2
sg36
F3
sg37
Nsg38
F0.20999999999999999
sg39
F20.699999999999999
sg40
Nsg41
F-5.7300000000000004
sg42
g24
(g26
S'\xce\xaa\xcf\xd5V\x9cB\xc0'
tRp713
sg44
Nsg45
Nsg47
Nsg48
F1.8999999999999999
sg49
F261.31999999999999
sg50
Nsg51
F19.25
sg52
NsbsS'NGC 6638'
p714
g3
(g4
g5
NtRp715
(dp716
g8
F9.0199999999999996
sg9
F18.100000000000001
sg10
F1.3300000000000001
sg11
S'G0'
p717
sg13
F4.0899999999999999
sg14
F8.4600000000000009
sg15
F9.4000000000000004
sg16
F0.51000000000000001
sg17
F7.8300000000000001
sg18
F0.56000000000000005
sg19
F0.22
sg20
F1.1499999999999999
sg21
Nsg22
g714
sg23
g24
(g26
S'4\x116<\xbd[q@'
tRp718
sg28
F-7.1500000000000004
sg29
F16.140000000000001
sg30
F0.71999999999999997
sg31
Nsg32
(lp719
F9.3000000000000007
aF1.3
aF-1.2
asg34
F2.2000000000000002
sg35
F-0.94999999999999996
sg36
F4
sg37
F0.01
sg38
F0.40999999999999998
sg39
F27.5
sg40
F1.5
sg41
F-7.1200000000000001
sg42
g24
(g26
S'\x8f\xc2\xf5(\\\x7f9\xc0'
tRp720
sg44
Nsg45
Nsg47
F17.300000000000001
sg48
F3.8999999999999999
sg49
F7.9000000000000004
sg50
Nsg51
F16.800000000000001
sg52
NsbsS'NGC 4147'
p721
g3
(g4
g5
NtRp722
(dp723
g8
F10.32
sg9
F183.19999999999999
sg10
F1.8300000000000001
sg11
S'F2'
p724
sg13
F3.6299999999999999
sg14
F8.7400000000000002
sg15
F19.300000000000001
sg16
F0.47999999999999998
sg17
F7.4100000000000001
sg18
F0.11
sg19
F0.089999999999999997
sg20
F0.58999999999999997
sg21
F2.6000000000000001
sg22
g721
sg23
g24
(g26
S'\xf7\xe4a\xa1\xd6\xd0f@'
tRp725
sg28
F77.189999999999998
sg29
F16.489999999999998
sg30
F0.41999999999999998
sg31
F0.69999999999999996
sg32
(lp726
F-1.3
aF-4.0999999999999996
aF18.800000000000001
asg34
F21.399999999999999
sg35
F-1.8
sg36
F4
sg37
Nsg38
F0.02
sg39
F186.09999999999999
sg40
F0.79000000000000004
sg41
F-6.1699999999999999
sg42
g24
(g26
S'B\xcff\xd5\xe7\x8a2@'
tRp727
sg44
Nsg45
Nsg47
F17.379999999999999
sg48
F0.69999999999999996
sg49
F252.84999999999999
sg50
Nsg51
F17.02
sg52
NsbsS'Pal 2'
p728
g3
(g4
g5
NtRp729
(dp730
g8
F13.039999999999999
sg9
F-133
sg10
F1.53
sg11
Nsg13
F4.0599999999999996
sg14
F9.2799999999999994
sg15
F27.199999999999999
sg16
F0.5
sg17
F8.8200000000000003
sg18
F1.8300000000000001
sg19
F0.17000000000000001
sg20
F2.0800000000000001
sg21
Nsg22
g728
sg23
g24
(g26
S'\xd3\xde\xe0\x0b\x93\xe1Q@'
tRp731
sg28
F-9.0700000000000003
sg29
F21.010000000000002
sg30
Nsg31
Nsg32
(lp732
F-26.399999999999999
aF4.4000000000000004
aF-4.2999999999999998
asg34
F35
sg35
F-1.4199999999999999
sg36
F1
sg37
F0.050000000000000003
sg38
F1.24
sg39
F-140.09999999999999
sg40
F2.6499999999999999
sg41
F-7.9699999999999998
sg42
g24
(g26
S'\x8bl\xe7\xfb\xa9a?@'
tRp733
sg44
Nsg45
Nsg47
F19.059999999999999
sg48
F57
sg49
F170.53
sg50
Nsg51
F21.600000000000001
sg52
NsbsS'Pal 3'
p734
g3
(g4
g5
NtRp735
(dp736
g8
F14.26
sg9
F83.400000000000006
sg10
F0.98999999999999999
sg11
Nsg13
F0.01
sg14
F9.8800000000000008
sg15
F92.5
sg16
F0.65000000000000002
sg17
F9.6500000000000004
sg18
Nsg19
F0.40999999999999998
sg20
Nsg21
Nsg22
g734
sg23
g24
(g26
S'n4\x80\xb7@\xecb@'
tRp737
sg28
F41.859999999999999
sg29
F19.949999999999999
sg30
Nsg31
Nsg32
(lp738
F-34.299999999999997
aF-59.700000000000003
aF61.700000000000003
asg34
F95.700000000000003
sg35
F-1.6299999999999999
sg36
F5
sg37
Nsg38
F0.040000000000000001
sg39
F75.900000000000006
sg40
Nsg41
F-5.6900000000000004
sg42
g24
(g26
S'\t\x8a\x1fc\xeeZ\xb2?'
tRp739
sg44
Nsg45
Nsg47
F23.260000000000002
sg48
F8.4000000000000004
sg49
F240.15000000000001
sg50
Nsg51
F20.510000000000002
sg52
NsbsS'NGC 6426'
p740
g3
(g4
g5
NtRp741
(dp742
g8
F11.01
sg9
F-162
sg10
F1.7
sg11
S'G1'
p743
sg13
F2.4700000000000002
sg14
F9.2799999999999994
sg15
F20.600000000000001
sg16
F0.92000000000000004
sg17
F8.3100000000000005
sg18
F0.34999999999999998
sg19
F0.26000000000000001
sg20
F1.02
sg21
Nsg22
g740
sg23
g24
(g26
S'\xcaT\xc1\xa8\xa4\xa3p@'
tRp744
sg28
F16.23
sg29
F17.68
sg30
Nsg31
Nsg32
(lp745
F17.399999999999999
aF9.3000000000000007
aF5.7999999999999998
asg34
F14.4
sg35
F-2.1499999999999999
sg36
F3
sg37
F0.14999999999999999
sg38
F0.35999999999999999
sg39
F-146.90000000000001
sg40
F1.28
sg41
F-6.6699999999999999
sg42
g24
(g26
S'\x95e\x88c]\\\t@'
tRp746
sg44
Nsg45
Nsg47
F20.09
sg48
F23
sg49
F28.09
sg50
Nsg51
F18.16
sg52
NsbsS'Pal 1'
p747
g3
(g4
g5
NtRp748
(dp749
g8
F13.18
sg9
F-82.799999999999997
sg10
F2.5699999999999998
sg11
Nsg13
F3.5099999999999998
sg14
F7.7599999999999998
sg15
F11.1
sg16
F0.46000000000000002
sg17
F4.0599999999999996
sg18
Nsg19
F0.01
sg20
F0.95999999999999996
sg21
Nsg22
g747
sg23
g24
(g26
S'\xa6\x9b\xc4 \xb0\xaaJ@'
tRp750
sg28
F19.030000000000001
sg29
F15.699999999999999
sg30
Nsg31
Nsg32
(lp751
F-6.7999999999999998
aF8.0999999999999996
aF3.6000000000000001
asg34
F17.199999999999999
sg35
F-0.65000000000000002
sg36
F2
sg37
F0.22
sg38
F0.14999999999999999
sg39
F-76.200000000000003
sg40
Nsg41
F-2.52
sg42
g24
(g26
S')\xed\r\xbe0\xe5S@'
tRp752
sg44
Nsg45
Nsg47
F20.93
sg48
F3.2999999999999998
sg49
F130.06
sg50
Nsg51
F16.399999999999999
sg52
NsbsS'Pal 6'
p753
g3
(g4
g5
NtRp754
(dp755
g8
F11.550000000000001
sg9
F181
sg10
F1.1000000000000001
sg11
Nsg13
F3.46
sg14
F8.6400000000000006
sg15
F5.7999999999999998
sg16
F1.2
sg17
F8.3399999999999999
sg18
Nsg19
F0.66000000000000003
sg20
F2.8300000000000001
sg21
Nsg22
g753
sg23
g24
(g26
S'0*\xa9\x13\xd0\x9ep@'
tRp756
sg28
F1.78
sg29
F18.34
sg30
Nsg31
Nsg32
(lp757
F5.7999999999999998
aF0.20000000000000001
aF0.20000000000000001
asg34
F2.2000000000000002
sg35
F-0.91000000000000003
sg36
F3
sg37
Nsg38
F1.46
sg39
F190.19999999999999
sg40
Nsg41
F-6.79
sg42
g24
(g26
S')\\\x8f\xc2\xf58:\xc0'
tRp758
sg44
Nsg45
Nsg47
F21.510000000000002
sg48
F2.7999999999999998
sg49
F2.1000000000000001
sg50
Nsg51
F19
sg52
NsbsS'Pal 4'
p759
g3
(g4
g5
NtRp760
(dp761
g8
F14.199999999999999
sg9
F74.5
sg10
F0.93000000000000005
sg11
Nsg13
F0.11
sg14
F9.4199999999999999
sg15
F108.7
sg16
F0.51000000000000001
sg17
F9.7200000000000006
sg18
Nsg19
F0.33000000000000002
sg20
Nsg21
Nsg22
g759
sg23
g24
(g26
S'\n\xd7\xa3p=\x8ae@'
tRp762
sg28
F71.799999999999997
sg29
F20.210000000000001
sg30
Nsg31
Nsg32
(lp763
F-31.399999999999999
aF-12.9
aF103.2
asg34
F111.2
sg35
F-1.4099999999999999
sg36
F5
sg37
Nsg38
F0.01
sg39
F76.599999999999994
sg40
Nsg41
F-6.0099999999999998
sg42
g24
(g26
S'\xb7b\x7f\xd9=\xf9<@'
tRp764
sg44
Nsg45
Nsg47
F23.010000000000002
sg48
F2.1000000000000001
sg49
F202.31
sg50
Nsg51
F20.800000000000001
sg52
NsbsS'Pal 5'
p765
g3
(g4
g5
NtRp766
(dp767
g8
F11.75
sg9
F-58.700000000000003
sg10
F0.52000000000000002
sg11
Nsg13
F-0.57999999999999996
sg14
F9.8200000000000003
sg15
F23.199999999999999
sg16
F2.73
sg17
F9.8100000000000005
sg18
Nsg19
F2.29
sg20
Nsg21
F1.1000000000000001
sg22
g765
sg23
g24
(g26
S'\t\xf9\xa0g\xb3\xa0l@'
tRp768
sg28
F45.859999999999999
sg29
F16.920000000000002
sg30
Nsg31
F0.20000000000000001
sg32
(lp769
F16.199999999999999
aF0.20000000000000001
aF16.699999999999999
asg34
F18.600000000000001
sg35
F-1.4099999999999999
sg36
F2
sg37
Nsg38
F0.029999999999999999
sg39
F-48
sg40
Nsg41
F-5.1699999999999999
sg42
g24
(g26
S'6\xcd;N\xd1\x91\xbc\xbf'
tRp770
sg44
Nsg45
Nsg47
F24.640000000000001
sg48
F0.20000000000000001
sg49
F0.84999999999999998
sg50
Nsg51
F17.510000000000002
sg52
NsbsS'NGC 6626'
p771
g3
(g4
g5
NtRp772
(dp773
g8
F6.79
sg9
F17
sg10
F1.6699999999999999
sg11
S'F8'
p774
sg13
F4.8600000000000003
sg14
F9.1699999999999999
sg15
F5.5
sg16
F1.97
sg17
F7.6200000000000001
sg18
F0.46000000000000002
sg19
F0.23999999999999999
sg20
F1.0800000000000001
sg21
F8.5999999999999996
sg22
g771
sg23
g24
(g26
S'\xd0\xd5V\xec/Bq@'
tRp775
sg28
F-5.5800000000000001
sg29
F14.949999999999999
sg30
F0.68999999999999995
sg31
F1.3
sg32
(lp776
F5.4000000000000004
aF0.69999999999999996
aF-0.5
asg34
F2.7000000000000002
sg35
F-1.3200000000000001
sg36
F2
sg37
F0.16
sg38
F0.40000000000000002
sg39
F26.600000000000001
sg40
F1.4099999999999999
sg41
F-8.1600000000000001
sg42
g24
(g26
S'\x91\x0fz6\xab\xde8\xc0'
tRp777
sg44
Nsg45
S'M 28'
p778
sg47
F15.77
sg48
F1
sg49
F7.7999999999999998
sg50
Nsg51
F15.550000000000001
sg52
NsbsS'NGC 2808'
p779
g3
(g4
g5
NtRp780
(dp781
g8
F6.2000000000000002
sg9
F101.59999999999999
sg10
F1.5600000000000001
sg11
S'F7'
p782
sg13
F4.6600000000000001
sg14
F9.1500000000000004
sg15
F9.5999999999999996
sg16
F0.80000000000000004
sg17
F8.2400000000000002
sg18
F0.28000000000000003
sg19
F0.25
sg20
F0.92000000000000004
sg21
F13.4
sg22
g779
sg23
g24
(g26
S'\xca\xc3B\xadi@a@'
tRp783
sg28
F-11.25
sg29
F15.59
sg30
F0.56999999999999995
sg31
F1.2
sg32
(lp784
F2
aF-9.1999999999999993
aF-1.8999999999999999
asg34
F11.1
sg35
F-1.1399999999999999
sg36
F4
sg37
F0.12
sg38
F0.22
sg39
F89.200000000000003
sg40
F1.1799999999999999
sg41
F-9.3900000000000006
sg42
g24
(g26
S'%\x06\x81\x95C7P\xc0'
tRp785
sg44
Nsg45
Nsg47
F15.08
sg48
F0.69999999999999996
sg49
F282.19
sg50
Nsg51
F16.219999999999999
sg52
NsbsS'Pal 8'
p786
g3
(g4
g5
NtRp787
(dp788
g8
F11.02
sg9
F-43
sg10
F1.53
sg11
Nsg13
F2.3399999999999999
sg14
F8.4700000000000006
sg15
F12.800000000000001
sg16
F0.57999999999999996
sg17
F8.6500000000000004
sg18
F0.71999999999999997
sg19
F0.56000000000000005
sg20
F1.22
sg21
Nsg22
g786
sg23
g24
(g26
S'N\xd1\x91\\\xfe\x85q@'
tRp789
sg28
F-6.79
sg29
F16.530000000000001
sg30
Nsg31
Nsg32
(lp790
F12.300000000000001
aF3.1000000000000001
aF-1.5
asg34
F5.5
sg35
F-0.37
sg36
F3
sg37
Nsg38
F0.32000000000000001
sg39
F-32.299999999999997
sg40
Nsg41
F-5.5099999999999998
sg42
g24
(g26
S'l\t\xf9\xa0g\xd33\xc0'
tRp791
sg44
Nsg45
Nsg47
F20
sg48
F15
sg49
F14.109999999999999
sg50
Nsg51
F17.27
sg52
NsbsS'NGC 5139'
p792
g3
(g4
g5
NtRp793
(dp794
g8
F3.6800000000000002
sg9
F232.09999999999999
sg10
F1.3100000000000001
sg11
S'F5'
p795
sg13
F3.1499999999999999
sg14
F10.09
sg15
F5.2000000000000002
sg16
F5
sg17
F9.5999999999999996
sg18
F0.19
sg19
F2.3700000000000001
sg20
F0.78000000000000003
sg21
F16.800000000000001
sg22
g792
sg23
g24
(g26
S'J{\x83/L6i@'
tRp796
sg28
F14.970000000000001
sg29
F13.94
sg30
F0.51000000000000001
sg31
F0.29999999999999999
sg32
(lp797
F3.1000000000000001
aF-3.8999999999999999
aF1.3
asg34
F6.4000000000000004
sg35
F-1.53
sg36
F4
sg37
F0.17000000000000001
sg38
F0.12
sg39
F228.90000000000001
sg40
F1.05
sg41
F-10.26
sg42
g24
(g26
S'\xaf\x94e\x88c\xbdG\xc0'
tRp798
sg44
Nsg45
S'omega Cen'
p799
sg47
F16.809999999999999
sg48
F0.10000000000000001
sg49
F309.10000000000002
sg50
Nsg51
F14.51
sg52
NsbsS'NGC 6584'
p800
g3
(g4
g5
NtRp801
(dp802
g8
F8.2699999999999996
sg9
F222.90000000000001
sg10
F1.47
sg11
S'F6'
p803
sg13
F3.3300000000000001
sg14
F9.0199999999999996
sg15
F13.5
sg16
F0.72999999999999998
sg17
F8.1300000000000008
sg18
F0.17000000000000001
sg19
F0.26000000000000001
sg20
F0.76000000000000001
sg21
Nsg22
g800
sg23
g24
(g26
S'\x88\xf4\xdb\xd7\x81*q@'
tRp804
sg28
F-16.41
sg29
F15.960000000000001
sg30
F0.5
sg31
Nsg32
(lp805
F12.300000000000001
aF-4
aF-3.7999999999999998
asg34
F7
sg35
F-1.5
sg36
F2
sg37
Nsg38
F0.10000000000000001
sg39
F224.90000000000001
sg40
F1.04
sg41
F-7.6900000000000004
sg42
g24
(g26
S'\x08=\x9bU\x9f\x1bJ\xc0'
tRp806
sg44
Nsg45
Nsg47
F17.629999999999999
sg48
F15
sg49
F342.13999999999999
sg50
Nsg51
F16.530000000000001
sg52
NsbsS'Pal 14'
p807
g3
(g4
g5
NtRp808
(dp809
g8
F14.74
sg9
F72.299999999999997
sg10
F0.80000000000000004
sg11
Nsg13
F-0.96999999999999997
sg14
F10.02
sg15
F76.5
sg16
F1.22
sg17
F9.8499999999999996
sg18
Nsg19
F0.81999999999999995
sg20
Nsg21
F0.40000000000000002
sg22
g807
sg23
g24
(g26
S'\xaeG\xe1z\x14Xn@'
tRp810
sg28
F42.189999999999998
sg29
F19.539999999999999
sg30
Nsg31
F0.10000000000000001
sg32
(lp811
F49.700000000000003
aF27.300000000000001
aF51.399999999999999
asg34
F71.599999999999994
sg35
F-1.6200000000000001
sg36
F4
sg37
Nsg38
F0.040000000000000001
sg39
F87
sg40
Nsg41
F-4.7999999999999998
sg42
g24
(g26
S'\xb57\xf8\xc2d\xea-@'
tRp812
sg44
Nsg45
S'AvdB'
p813
sg47
F25.25
sg48
F0.20000000000000001
sg49
F28.739999999999998
sg50
Nsg51
F20.100000000000001
sg52
NsbsS'Pal 15'
p814
g3
(g4
g5
NtRp815
(dp816
g8
F14
sg9
F68.900000000000006
sg10
F0.59999999999999998
sg11
Nsg13
F-0.25
sg14
F9.7200000000000006
sg15
F45.100000000000001
sg16
F1.1000000000000001
sg17
F9.9900000000000002
sg18
Nsg19
F1.2
sg20
Nsg21
Nsg22
g814
sg23
g24
(g26
S'\xcd\xcc\xcc\xcc\xcc\xdeo@'
tRp817
sg28
F24.300000000000001
sg29
F19.510000000000002
sg30
Nsg31
Nsg32
(lp818
F38.899999999999999
aF13.300000000000001
aF18.600000000000001
asg34
F38.399999999999999
sg35
F-2.0699999999999998
sg36
F4
sg37
Nsg38
F0.40000000000000002
sg39
F82.900000000000006
sg40
Nsg41
F-5.5099999999999998
sg42
g24
(g26
S'\x91\x0fz6\xab>\xe1\xbf'
tRp819
sg44
Nsg45
Nsg47
F24.870000000000001
sg48
F1.1000000000000001
sg49
F18.879999999999999
sg50
Nsg51
F20
sg52
NsbsS'Pal 10'
p820
g3
(g4
g5
NtRp821
(dp822
g8
F13.220000000000001
sg9
F-31.699999999999999
sg10
F0.57999999999999996
sg11
Nsg13
F3.5099999999999998
sg14
F8.3699999999999992
sg15
F5.9000000000000004
sg16
F0.98999999999999999
sg17
F8.6899999999999995
sg18
Nsg19
F0.81000000000000005
sg20
Nsg21
Nsg22
g820
sg23
g24
(g26
S'G\x03x\x0b$\x18r@'
tRp823
sg28
F2.7200000000000002
sg29
F19.010000000000002
sg30
Nsg31
Nsg32
(lp824
F3.6000000000000001
aF4.7000000000000002
aF0.29999999999999999
asg34
F6.4000000000000004
sg35
F-0.10000000000000001
sg36
F1
sg37
Nsg38
F1.6599999999999999
sg39
F-15.6
sg40
Nsg41
F-5.79
sg42
g24
(g26
S'\x8a\x1fc\xeeZ\x922@'
tRp825
sg44
Nsg45
Nsg47
F22.030000000000001
sg48
F0.40000000000000002
sg49
F52.43
sg50
Nsg51
F19.800000000000001
sg52
NsbsS'Pal 11'
p826
g3
(g4
g5
NtRp827
(dp828
g8
F9.8000000000000007
sg9
F-68
sg10
F0.56999999999999995
sg11
Nsg13
F2.29
sg14
F9.3399999999999999
sg15
F13.4
sg16
F1.46
sg17
F9.6099999999999994
sg18
Nsg19
F1.1899999999999999
sg20
F1.27
sg21
Nsg22
g826
sg23
g24
(g26
S')\\\x8f\xc2\xf5\x84r@'
tRp829
sg28
F-15.57
sg29
F16.719999999999999
sg30
Nsg31
Nsg32
(lp830
F11
aF6.7999999999999998
aF-3.6000000000000001
asg34
F8.1999999999999993
sg35
F-0.40000000000000002
sg36
F4
sg37
Nsg38
F0.34999999999999998
sg39
F-56
sg40
Nsg41
F-6.9199999999999999
sg42
g24
(g26
S'\xf9\x0f\xe9\xb7\xaf\x03 \xc0'
tRp831
sg44
Nsg45
Nsg47
F19.719999999999999
sg48
F10
sg49
F31.809999999999999
sg50
Nsg51
F17.460000000000001
sg52
NsbsS'Pal 12'
p832
g3
(g4
g5
NtRp833
(dp834
g8
F11.99
sg9
F27.800000000000001
sg10
F2.98
sg11
Nsg13
F3.6400000000000001
sg14
F9.2799999999999994
sg15
F19
sg16
F1.72
sg17
F5.2199999999999998
sg18
F0.34000000000000002
sg19
F0.02
sg20
F1.0700000000000001
sg21
Nsg22
g832
sg23
g24
(g26
S'\xe3\xc7\x98\xbb\x96jt@'
tRp835
sg28
F-47.68
sg29
F16.460000000000001
sg30
Nsg31
Nsg32
(lp836
F11
aF6.5
aF-14.1
asg34
F15.800000000000001
sg35
F-0.84999999999999998
sg36
F6
sg37
Nsg38
F0.02
sg39
F32.5
sg40
Nsg41
F-4.4699999999999998
sg42
g24
(g26
S'8\xf8\xc2d\xaa@5\xc0'
tRp837
sg44
Nsg45
Nsg47
F19.210000000000001
sg48
F1.5
sg49
F30.510000000000002
sg50
Nsg51
F17.129999999999999
sg52
NsbsS'NGC 6218'
p838
g3
(g4
g5
NtRp839
(dp840
g8
F6.7000000000000002
sg9
F-41.399999999999999
sg10
F1.3400000000000001
sg11
S'F8'
p841
sg13
F3.23
sg14
F8.8699999999999992
sg15
F4.7999999999999998
sg16
F1.77
sg17
F8.1899999999999995
sg18
F0.20000000000000001
sg19
F0.79000000000000004
sg20
F0.82999999999999996
sg21
F4.5
sg22
g838
sg23
g24
(g26
S'2\xe6\xae%\xe4yo@'
tRp842
sg28
F26.309999999999999
sg29
F14.01
sg30
F0.56000000000000005
sg31
F0.40000000000000002
sg32
(lp843
F4.2000000000000002
aF1.2
aF2.1000000000000001
asg34
F4.5
sg35
F-1.3700000000000001
sg36
F5
sg37
F0.040000000000000001
sg38
F0.19
sg39
F-27.899999999999999
sg40
F1.1399999999999999
sg41
F-7.3099999999999996
sg42
g24
(g26
S'\x93\x18\x04V\x0e-\xff\xbf'
tRp844
sg44
Nsg45
S'M 12'
p845
sg47
F18.100000000000001
sg48
F0.20000000000000001
sg49
F15.720000000000001
sg50
Nsg51
F14.6
sg52
NsbsS'NGC 2298'
p846
g3
(g4
g5
NtRp847
(dp848
g8
F9.2899999999999991
sg9
F148.90000000000001
sg10
F1.3799999999999999
sg11
S'F5'
p849
sg13
F2.8999999999999999
sg14
F8.8399999999999999
sg15
F10.800000000000001
sg16
F0.97999999999999998
sg17
F7.9100000000000001
sg18
F0.17000000000000001
sg19
F0.31
sg20
F0.75
sg21
Nsg22
g846
sg23
g24
(g26
S'\xa4p=\n\xd7\x8fY@'
tRp850
sg28
F-16
sg29
F15.6
sg30
F0.54000000000000004
sg31
Nsg32
(lp851
F-4.2999999999999998
aF-9.4000000000000004
aF-3
asg34
F15.800000000000001
sg35
F-1.9199999999999999
sg36
F5
sg37
F0.080000000000000002
sg38
F0.14000000000000001
sg39
F132
sg40
F1.1100000000000001
sg41
F-6.3099999999999996
sg42
g24
(g26
S'\x9bU\x9f\xab\xad\x00B\xc0'
tRp852
sg44
Nsg45
Nsg47
F18.899999999999999
sg48
F1.2
sg49
F245.63
sg50
Nsg51
F16.109999999999999
sg52
NsbsS'NGC 6356'
p853
g3
(g4
g5
NtRp854
(dp855
g8
F8.25
sg9
F27
sg10
F1.5900000000000001
sg11
S'G3'
p856
sg13
F3.7799999999999998
sg14
F9.3000000000000007
sg15
F15.1
sg16
F0.81000000000000005
sg17
F8.3699999999999992
sg18
F0.63
sg19
F0.23999999999999999
sg20
F1.1299999999999999
sg21
Nsg22
g853
sg23
g24
(g26
S'\x17\xd9\xce\xf7SNp@'
tRp857
sg28
F10.220000000000001
sg29
F16.760000000000002
sg30
F0.68999999999999995
sg31
Nsg32
(lp858
F14.699999999999999
aF1.7
aF2.7000000000000002
asg34
F7.5
sg35
F-0.40000000000000002
sg36
F5
sg37
F0.029999999999999999
sg38
F0.28000000000000003
sg39
F38
sg40
F1.45
sg41
F-8.5099999999999998
sg42
g24
(g26
S'\xe3\xa5\x9b\xc4 \xd01\xc0'
tRp859
sg44
Nsg45
Nsg47
F17.02
sg48
F4.2999999999999998
sg49
F6.7199999999999998
sg50
Nsg51
F17.5
sg52
NsbsS'NGC 6355'
p860
g3
(g4
g5
NtRp861
(dp862
g8
F9.1400000000000006
sg9
F-176.90000000000001
sg10
F2.5
sg11
S'G0'
p863
sg13
F5.04
sg14
F8.9600000000000009
sg15
F9.1999999999999993
sg16
F0.88
sg17
F6.2699999999999996
sg18
F0.71999999999999997
sg19
Nsg20
F1.48
sg21
Nsg22
g860
sg23
g24
(g26
S'B\xcff\xd5\xe7Op@'
tRp864
sg28
F5.4299999999999997
sg29
F17.210000000000001
sg30
F0.93000000000000005
sg31
Nsg32
(lp865
F9.1999999999999993
aF-0.10000000000000001
aF0.90000000000000002
asg34
F1.3999999999999999
sg35
F-1.3700000000000001
sg36
F4
sg37
Nsg38
F0.77000000000000002
sg39
F-167.90000000000001
sg40
F1.8300000000000001
sg41
F-8.0700000000000003
sg42
g24
(g26
S'\nh"lxZ:\xc0'
tRp866
sg44
Nsg45
Nsg47
F17.640000000000001
sg48
F7.0999999999999996
sg49
F359.58999999999997
sg50
Nsg51
F17.800000000000001
sg52
NsbsS'NGC 6352'
p867
g3
(g4
g5
NtRp868
(dp869
g8
F7.96
sg9
F-137
sg10
F1.1000000000000001
sg11
S'G4'
p870
sg13
F3.1699999999999999
sg14
F8.9199999999999999
sg15
F5.5999999999999996
sg16
F2.0499999999999998
sg17
F8.4600000000000009
sg18
F0.64000000000000001
sg19
F0.82999999999999996
sg20
F1.0600000000000001
sg21
Nsg22
g867
sg23
g24
(g26
S'\x14\xd0D\xd8\xf0Up@'
tRp871
sg28
F-7.1699999999999999
sg29
F14.43
sg30
F0.66000000000000003
sg31
Nsg32
(lp872
F5.2999999999999998
aF-1.8
aF-0.69999999999999996
asg34
F3.2999999999999998
sg35
F-0.64000000000000001
sg36
F5
sg37
F0.070000000000000007
sg38
F0.22
sg39
F-134.09999999999999
sg40
F1.5
sg41
F-6.4699999999999998
sg42
g24
(g26
S'\x83/L\xa6\n6H\xc0'
tRp873
sg44
Nsg45
Nsg47
F18.170000000000002
sg48
F1.1000000000000001
sg49
F341.42000000000002
sg50
Nsg51
F15.130000000000001
sg52
NsbsS'NGC 6101'
p874
g3
(g4
g5
NtRp875
(dp876
g8
F9.1600000000000001
sg9
F361.39999999999998
sg10
F0.80000000000000004
sg11
S'F5'
p877
sg13
F1.6499999999999999
sg14
F9.2200000000000006
sg15
F15.4
sg16
F1.05
sg17
F9.2100000000000009
sg18
F0.059999999999999998
sg19
F0.96999999999999997
sg20
F0.68000000000000005
sg21
Nsg22
g874
sg23
g24
(g26
S'#\xdb\xf9~j\xcen@'
tRp878
sg28
F-15.82
sg29
F16.100000000000001
sg30
F0.5
sg31
Nsg32
(lp879
F11
aF-10
aF-4.2000000000000002
asg34
F11.199999999999999
sg35
F-1.98
sg36
F3
sg37
F0.050000000000000003
sg38
F0.050000000000000003
sg39
F357
sg40
Nsg41
F-6.9400000000000004
sg42
g24
(g26
S'\x14\xd0D\xd8\xf0\x0cR\xc0'
tRp880
sg44
Nsg45
Nsg47
F20.289999999999999
sg48
F1.7
sg49
F317.74000000000001
sg50
Nsg51
F16.600000000000001
sg52
NsbsS'NGC 6517'
p881
g3
(g4
g5
NtRp882
(dp883
g8
F10.23
sg9
F-39.600000000000001
sg10
F1.8200000000000001
sg11
S'F8'
p884
sg13
F5.29
sg14
F8.7200000000000006
sg15
F10.6
sg16
F0.5
sg17
F6.9199999999999999
sg18
F0.84999999999999998
sg19
F0.059999999999999998
sg20
F1.75
sg21
Nsg22
g881
sg23
g24
(g26
S'\xee|?5^\xe7p@'
tRp885
sg28
F6.7599999999999998
sg29
F18.48
sg30
Nsg31
Nsg32
(lp886
F10
aF3.5
aF1.3
asg34
F4.2000000000000002
sg35
F-1.23
sg36
F4
sg37
F0.059999999999999998
sg38
F1.0800000000000001
sg39
F-26.5
sg40
F2.3100000000000001
sg41
F-8.25
sg42
g24
(g26
S'B\xcff\xd5\xe7\xea!\xc0'
tRp887
sg44
Nsg45
Nsg47
F17.559999999999999
sg48
F8
sg49
F19.23
sg50
Nsg51
F19.100000000000001
sg52
NsbsS'NGC 6752'
p888
g3
(g4
g5
NtRp889
(dp890
g8
F5.4000000000000004
sg9
F-26.699999999999999
sg10
F2.5
sg11
S'F4'
p891
sg13
F5.04
sg14
F8.8699999999999992
sg15
F4
sg16
F1.9099999999999999
sg17
F6.8799999999999999
sg18
F0.070000000000000007
sg19
Nsg20
F0.66000000000000003
sg21
F4.9000000000000004
sg22
g888
sg23
g24
(g26
S'c\x7f\xd9=y\xfbq@'
tRp892
sg28
F-25.629999999999999
sg29
F13.130000000000001
sg30
F0.42999999999999999
sg31
F0.40000000000000002
sg32
(lp893
F3.2999999999999998
aF-1.3999999999999999
aF-1.7
asg34
F5.2000000000000002
sg35
F-1.54
sg36
F8
sg37
Nsg38
F0.040000000000000001
sg39
F-27.300000000000001
sg40
F0.93000000000000005
sg41
F-7.7300000000000004
sg42
g24
(g26
S' \xd2o_\x07\xfeM\xc0'
tRp894
sg44
Nsg45
Nsg47
F14.880000000000001
sg48
F0.20000000000000001
sg49
F336.49000000000001
sg50
Nsg51
F13.699999999999999
sg52
NsbsS'NGC 1261'
p895
g3
(g4
g5
NtRp896
(dp897
g8
F8.2899999999999991
sg9
F68.200000000000003
sg10
F1.1599999999999999
sg11
S'F7'
p898
sg13
F2.9900000000000002
sg14
F9.1199999999999992
sg15
F16.300000000000001
sg16
F0.68000000000000005
sg17
F8.5899999999999999
sg18
F0.13
sg19
F0.34999999999999998
sg20
F0.71999999999999997
sg21
Nsg22
g895
sg23
g24
(g26
S'q=\n\xd7\xa3\x08H@'
tRp899
sg28
F-52.119999999999997
sg29
F16.09
sg30
F0.45000000000000001
sg31
Nsg32
(lp900
F0.10000000000000001
aF-10
aF-12.9
asg34
F18.100000000000001
sg35
F-1.27
sg36
F3
sg37
F0.070000000000000007
sg38
F0.01
sg39
F54.899999999999999
sg40
F0.93000000000000005
sg41
F-7.7999999999999998
sg42
g24
(g26
S'\x96\xb2\x0cq\xac\x9bK\xc0'
tRp901
sg44
Nsg45
Nsg47
F17.73
sg48
F4.5999999999999996
sg49
F270.54000000000002
sg50
Nsg51
F16.699999999999999
sg52
NsbsS'NGC 7492'
p902
g3
(g4
g5
NtRp903
(dp904
g8
F11.289999999999999
sg9
F-177.5
sg10
F0.71999999999999997
sg11
Nsg13
F1.27
sg14
F9.4399999999999995
sg15
F26.300000000000001
sg16
F1.1499999999999999
sg17
F9.5999999999999996
sg18
F0.23000000000000001
sg19
F0.85999999999999999
sg20
F0.41999999999999998
sg21
F1.2
sg22
g902
sg23
g24
(g26
S'\xb2\x9d\xef\xa7\xc6\xb1u@'
tRp905
sg28
F-63.479999999999997
sg29
F17.100000000000001
sg30
Nsg31
F1
sg32
(lp906
F7
aF9.4000000000000004
aF-23.5
asg34
F25.300000000000001
sg35
F-1.78
sg36
F5
sg37
F0.23999999999999999
sg38
F0
sg39
F-176.19999999999999
sg40
Nsg41
F-5.8099999999999996
sg42
g24
(g26
S'\x0c\x02+\x87\x169/\xc0'
tRp907
sg44
Nsg45
Nsg47
F20.68
sg48
F0.59999999999999998
sg49
F53.390000000000001
sg50
Nsg51
F17.629999999999999
sg52
NsbsS'Terzan 1'
p908
g3
(g4
g5
NtRp909
(dp910
g8
F15.9
sg9
F114
sg10
F2.5
sg11
Nsg13
F3.8500000000000001
sg14
F9.1199999999999992
sg15
F6.7000000000000002
sg16
F3.8199999999999998
sg17
F4.9900000000000002
sg18
Nsg19
Nsg20
Nsg21
Nsg22
g908
sg23
g24
(g26
S'\xd0\xd5V\xec/\x7fp@'
tRp911
sg28
F1
sg29
F20.309999999999999
sg30
Nsg31
Nsg32
(lp912
F6.7000000000000002
aF-0.29999999999999999
aF0.10000000000000001
asg34
F1.3
sg35
F-1.03
sg36
F3
sg37
Nsg38
F1.99
sg39
F122
sg40
Nsg41
F-4.4100000000000001
sg42
g24
(g26
S'c\xeeZB>x>\xc0'
tRp913
sg44
Nsg45
S'HP 2'
p914
sg47
F25.09
sg48
F14
sg49
F357.56999999999999
sg50
Nsg51
F20.960000000000001
sg52
NsbsS'Terzan 2'
p915
g3
(g4
g5
NtRp916
(dp917
g8
F14.289999999999999
sg9
F109
sg10
F2.5
sg11
Nsg13
F4.8600000000000003
sg14
F8.8200000000000003
sg15
F7.5
sg16
F1.52
sg17
F5.46
sg18
Nsg19
Nsg20
Nsg21
Nsg22
g915
sg23
g24
(g26
S'\xe5a\xa1\xd64^p@'
tRp918
sg28
F2.2999999999999998
sg29
F20.170000000000002
sg30
Nsg31
Nsg32
(lp919
F7.5
aF-0.5
aF0.29999999999999999
asg34
F0.80000000000000004
sg35
F-0.68999999999999995
sg36
F3
sg37
Nsg38
F1.8700000000000001
sg39
F116.90000000000001
sg40
Nsg41
F-5.8799999999999999
sg42
g24
(g26
S'\xaf\x94e\x88c\xcd>\xc0'
tRp920
sg44
Nsg45
S'HP 3'
p921
sg47
F22.16
sg48
F15
sg49
F356.31999999999999
sg50
Nsg51
F20.870000000000001
sg52
NsbsS'Terzan 3'
p922
g3
(g4
g5
NtRp923
(dp924
g8
F12
sg9
F-136.30000000000001
sg10
F0.69999999999999996
sg11
Nsg13
F1.8200000000000001
sg14
F8.5700000000000003
sg15
F8.1999999999999993
sg16
F1.25
sg17
F8.7899999999999991
sg18
Nsg19
F1.1799999999999999
sg20
Nsg21
Nsg22
g922
sg23
g24
(g26
S'\xd3Mb\x10X\xe5n@'
tRp925
sg28
F9.1899999999999995
sg29
F16.82
sg30
Nsg31
Nsg32
(lp926
F7.7999999999999998
aF-2.1000000000000001
aF1.3
asg34
F2.5
sg35
F-0.73999999999999999
sg36
F2
sg37
Nsg38
F0.72999999999999998
sg39
F-130.59999999999999
sg40
Nsg41
F-4.8200000000000003
sg42
g24
(g26
S'h\x91\xed|?\xadA\xc0'
tRp927
sg44
Nsg45
Nsg47
F22.52
sg48
F0.69999999999999996
sg49
F345.07999999999998
sg50
Nsg51
F17.510000000000002
sg52
NsbsS'Terzan 4'
p928
g3
(g4
g5
NtRp929
(dp930
g8
F16
sg9
F-50
sg10
F0.90000000000000002
sg11
Nsg13
Nsg14
F8.6999999999999993
sg15
F7.2000000000000002
sg16
F1.8500000000000001
sg17
Nsg18
Nsg19
F0.90000000000000002
sg20
Nsg21
Nsg22
g928
sg23
g24
(g26
S'\x9a\x99\x99\x99\x99jp@'
tRp931
sg28
F1.3100000000000001
sg29
F20.48
sg30
Nsg31
Nsg32
(lp932
F7.2000000000000002
aF-0.5
aF0.20000000000000001
asg34
F1
sg35
F-1.4099999999999999
sg36
F4
sg37
Nsg38
F2
sg39
F-42.299999999999997
sg40
Nsg41
F-4.4800000000000004
sg42
g24
(g26
S'\x9c\xc4 \xb0r\x98?\xc0'
tRp933
sg44
Nsg45
S'HP 4'
p934
sg47
Nsg48
F2.8999999999999999
sg49
F356.01999999999998
sg50
Nsg51
F21.07
sg52
NsbsS'Terzan 5'
p935
g3
(g4
g5
NtRp936
(dp937
g8
F13.85
sg9
F-93
sg10
F1.6200000000000001
sg11
Nsg13
F5.1399999999999997
sg14
F8.5299999999999994
sg15
F6.9000000000000004
sg16
F0.71999999999999997
sg17
F7.5700000000000003
sg18
F2.1299999999999999
sg19
F0.16
sg20
F2.77
sg21
Nsg22
g935
sg23
g24
(g26
S'\xb8\x1e\x85\xebQ\xb0p@'
tRp938
sg28
F1.6899999999999999
sg29
F21.27
sg30
Nsg31
Nsg32
(lp939
F6.9000000000000004
aF0.5
aF0.20000000000000001
asg34
F1.2
sg35
F-0.23000000000000001
sg36
F3
sg37
Nsg38
F2.2799999999999998
sg39
F-83.5
sg40
Nsg41
F-7.4199999999999999
sg42
g24
(g26
S'\x0f\x0b\xb5\xa6y\xc78\xc0'
tRp940
sg44
Nsg45
S'Terzan 11'
p941
sg47
F21.079999999999998
sg48
F2
sg49
F3.8399999999999999
sg50
Nsg51
F22.039999999999999
sg52
NsbsS'Terzan 6'
p942
g3
(g4
g5
NtRp943
(dp944
g8
F13.85
sg9
F126
sg10
F2.5
sg11
Nsg13
F5.8300000000000001
sg14
F8.2200000000000006
sg15
F6.7999999999999998
sg16
F0.44
sg17
F6.46
sg18
Nsg19
Nsg20
Nsg21
Nsg22
g942
sg23
g24
(g26
S'e\x19\xe2X\x17\xbbp@'
tRp945
sg28
F-2.1600000000000001
sg29
F21.440000000000001
sg30
Nsg31
Nsg32
(lp946
F6.7999999999999998
aF-0.20000000000000001
aF-0.29999999999999999
asg34
F1.3
sg35
F-0.56000000000000005
sg36
F2
sg37
Nsg38
F2.3500000000000001
sg39
F133.90000000000001
sg40
Nsg41
F-7.5899999999999999
sg42
g24
(g26
S'\x83QI\x9d\x80F?\xc0'
tRp947
sg44
Nsg45
S'HP 5'
p948
sg47
F20.760000000000002
sg48
F15
sg49
F358.56999999999999
sg50
Nsg51
F22.16
sg52
NsbsS'Terzan 7'
p949
g3
(g4
g5
NtRp950
(dp951
g8
F12
sg9
F166
sg10
F0.93000000000000005
sg11
Nsg13
F1.6299999999999999
sg14
F8.9600000000000009
sg15
F22.800000000000001
sg16
F0.77000000000000002
sg17
F8.8900000000000006
sg18
Nsg19
F0.48999999999999999
sg20
Nsg21
Nsg22
g949
sg23
g24
(g26
S'\xb0rh\x91\xed\x16r@'
tRp952
sg28
F-20.07
sg29
F17.010000000000002
sg30
Nsg31
Nsg32
(lp953
F21.399999999999999
aF1.3
aF-7.7999999999999998
asg34
F15.6
sg35
F-0.32000000000000001
sg36
F6
sg37
Nsg38
F0.070000000000000007
sg39
F172.5
sg40
Nsg41
F-5.0099999999999998
sg42
g24
(g26
S'#J{\x83/TA\xc0'
tRp954
sg44
Nsg45
Nsg47
F20.66
sg48
F4
sg49
F3.3900000000000001
sg50
Nsg51
F17.760000000000002
sg52
NsbsS'Terzan 8'
p955
g3
(g4
g5
NtRp956
(dp957
g8
F12.4
sg9
F130
sg10
F0.59999999999999998
sg11
Nsg13
F0.53000000000000003
sg14
F9.2100000000000009
sg15
F26.300000000000001
sg16
F0.94999999999999996
sg17
F9.4600000000000009
sg18
Nsg19
F1
sg20
Nsg21
Nsg22
g955
sg23
g24
(g26
S')\\\x8f\xc2\xf5vr@'
tRp958
sg28
F-24.559999999999999
sg29
F17.469999999999999
sg30
Nsg31
Nsg32
(lp959
F23.800000000000001
aF2.3999999999999999
aF-10.9
asg34
F19.399999999999999
sg35
F-2.1600000000000001
sg36
F2
sg37
Nsg38
F0.12
sg39
F136.19999999999999
sg40
Nsg41
F-5.0700000000000003
sg42
g24
(g26
S'\x0e-\xb2\x9d\xef\xff@\xc0'
tRp960
sg44
Nsg45
Nsg47
F22.82
sg48
F8
sg49
F5.7599999999999998
sg50
Nsg51
F17.949999999999999
sg52
NsbsS'Terzan 9'
p961
g3
(g4
g5
NtRp962
(dp963
g8
F16
sg9
F59
sg10
F2.5
sg11
Nsg13
F4.4199999999999999
sg14
F8
sg15
F7.0999999999999996
sg16
F0.78000000000000003
sg17
F4.9900000000000002
sg18
Nsg19
Nsg20
Nsg21
Nsg22
g961
sg23
g24
(g26
S'6<\xbdR\x96\xe6p@'
tRp964
sg28
F-1.99
sg29
F19.710000000000001
sg30
Nsg31
Nsg32
(lp965
F7.0999999999999996
aF0.40000000000000002
aF-0.20000000000000001
asg34
F1.1000000000000001
sg35
F-1.05
sg36
F2
sg37
Nsg38
F1.76
sg39
F68.099999999999994
sg40
Nsg41
F-3.71
sg42
g24
(g26
S'\x82sF\x94\xf6\xd6:\xc0'
tRp966
sg44
Nsg45
Nsg47
F23.210000000000001
sg48
F10
sg49
F3.6099999999999999
sg50
Nsg51
F20.350000000000001
sg52
NsbsS'NGC 5904'
p967
g3
(g4
g5
NtRp968
(dp969
g8
F5.6500000000000004
sg9
F53.200000000000003
sg10
F1.73
sg11
S'F7'
p970
sg13
F3.8799999999999999
sg14
F9.4100000000000001
sg15
F7.5
sg16
F1.77
sg17
F8.2799999999999994
sg18
F0.17000000000000001
sg19
F0.44
sg20
F0.71999999999999997
sg21
F5.5
sg22
g967
sg23
g24
(g26
S'\x868\xd6\xc5m\xb4l@'
tRp971
sg28
F46.799999999999997
sg29
F14.460000000000001
sg30
F0.45000000000000001
sg31
F0.40000000000000002
sg32
(lp972
F5.0999999999999996
aF0.29999999999999999
aF5.5
asg34
F6.2000000000000002
sg35
F-1.29
sg36
F11
sg37
F0.14000000000000001
sg38
F0.029999999999999999
sg39
F64.299999999999997
sg40
F0.94999999999999996
sg41
F-8.8100000000000005
sg42
g24
(g26
S'\xd9\xce\xf7S\xe3\xa5\x00@'
tRp973
sg44
Nsg45
S'M 5'
p974
sg47
F16.09
sg48
F0.40000000000000002
sg49
F3.8599999999999999
sg50
Nsg51
F15.07
sg52
NsbsS'IC 1257'
p975
g3
(g4
g5
NtRp976
(dp977
g8
F13.1
sg9
F-140.19999999999999
sg10
F1.55
sg11
Nsg13
Nsg14
F9.5999999999999996
sg15
F25
sg16
F1.3999999999999999
sg17
Nsg18
Nsg19
F0.25
sg20
F1.3799999999999999
sg21
Nsg22
g975
sg23
g24
(g26
S't$\x97\xff\x90\\p@'
tRp978
sg28
F15.15
sg29
F19.25
sg30
Nsg31
Nsg32
(lp979
F23.199999999999999
aF6.9000000000000004
aF6.5
asg34
F17.899999999999999
sg35
F-1.7
sg36
F1
sg37
Nsg38
F0.72999999999999998
sg39
F-127
sg40
F1.8300000000000001
sg41
F-6.1500000000000004
sg42
g24
(g26
S'\xc8\x07=\x9bU_\x1c\xc0'
tRp980
sg44
Nsg45
Nsg47
Nsg48
F2.1000000000000001
sg49
F16.539999999999999
sg50
Nsg51
F19.800000000000001
sg52
NsbsS'NGC 6139'
p981
g3
(g4
g5
NtRp982
(dp983
g8
F8.9900000000000002
sg9
F6.7000000000000002
sg10
F1.8600000000000001
sg11
S'F6'
p984
sg13
F4.6699999999999999
sg14
F9.0500000000000007
sg15
F10.1
sg16
F0.84999999999999998
sg17
F7.6600000000000001
sg18
F0.72999999999999998
sg19
F0.14999999999999999
sg20
F1.3999999999999999
sg21
Nsg22
g981
sg23
g24
(g26
S'\xfee\xf7\xe4a\xddn@'
tRp985
sg28
F6.9400000000000004
sg29
F17.350000000000001
sg30
F0.91000000000000003
sg31
Nsg32
(lp986
F9.5999999999999996
aF-3
aF1.2
asg34
F3.6000000000000001
sg35
F-1.6499999999999999
sg36
F2
sg37
Nsg38
F0.75
sg39
F11.5
sg40
F1.8600000000000001
sg41
F-8.3599999999999994
sg42
g24
(g26
S'"lxz\xa5lC\xc0'
tRp987
sg44
Nsg45
Nsg47
F17.199999999999999
sg48
F6
sg49
F342.37
sg50
Nsg51
F17.899999999999999
sg52
NsbsS'IC 4499'
p988
g3
(g4
g5
NtRp989
(dp990
g8
F9.7599999999999998
sg9
F31.5
sg10
F1.21
sg11
Nsg13
F1.55
sg14
F9.7300000000000004
sg15
F18.800000000000001
sg16
F1.71
sg17
F9.2100000000000009
sg18
F0.45000000000000001
sg19
F0.83999999999999997
sg20
F0.91000000000000003
sg21
F2.5
sg22
g988
sg23
g24
(g26
S'\xff!\xfd\xf6u"l@'
tRp991
sg28
F-20.469999999999999
sg29
F17.079999999999998
sg30
Nsg31
F0.5
sg32
(lp992
F10.699999999999999
aF-14
aF-6.5999999999999996
asg34
F15.699999999999999
sg35
F-1.53
sg36
F3
sg37
F0.080000000000000002
sg38
F0.23000000000000001
sg39
F24.100000000000001
sg40
Nsg41
F-7.3200000000000003
sg42
g24
(g26
S'\xef\xc9\xc3B\xad\x8dT\xc0'
tRp993
sg44
Nsg45
Nsg47
F20.899999999999999
sg48
F0.20000000000000001
sg49
F307.35000000000002
sg50
Nsg51
F17.649999999999999
sg52
NsbsS'NGC 288'
p994
g3
(g4
g5
NtRp995
(dp996
g8
F8.0899999999999999
sg9
F-45.399999999999999
sg10
F0.98999999999999999
sg11
Nsg13
F1.78
sg14
F9.3200000000000003
sg15
F8.9000000000000004
sg16
F2.23
sg17
F8.9900000000000002
sg18
F0.080000000000000002
sg19
F1.3500000000000001
sg20
F0.65000000000000002
sg21
F2.8999999999999999
sg22
g994
sg23
g24
(g26
S'\x8d\x97n\x12\x83`*@'
tRp997
sg28
F-89.379999999999995
sg29
F14.84
sg30
F0.45000000000000001
sg31
F0.29999999999999999
sg32
(lp998
F-0.10000000000000001
aF0
aF-8.9000000000000004
asg34
F12
sg35
F-1.3200000000000001
sg36
F3
sg37
Nsg38
F0.029999999999999999
sg39
F-51.899999999999999
sg40
F0.93999999999999995
sg41
F-6.75
sg42
g24
(g26
S'L\xa6\nF%\x95:\xc0'
tRp999
sg44
Nsg45
Nsg47
F20.050000000000001
sg48
F0.20000000000000001
sg49
F152.30000000000001
sg50
Nsg51
F15.44
sg52
NsbsS'NGC 2419'
p1000
g3
(g4
g5
NtRp1001
(dp1002
g8
F10.41
sg9
F-20.199999999999999
sg10
F1.3700000000000001
sg11
S'F5'
p1003
sg13
F1.6200000000000001
sg14
F10.630000000000001
sg15
F82.599999999999994
sg16
F0.89000000000000001
sg17
F9.8699999999999992
sg18
F0.070000000000000007
sg19
F0.32000000000000001
sg20
F0.66000000000000003
sg21
F4
sg22
g1000
sg23
g24
(g26
S' c\xeeZB\xa2\\@'
tRp1004
sg28
F25.239999999999998
sg29
F19.829999999999998
sg30
Nsg31
F0.59999999999999998
sg32
(lp1005
F-74.700000000000003
aF-0.5
aF35.200000000000003
asg34
F89.900000000000006
sg35
F-2.1499999999999999
sg36
F2
sg37
F0.029999999999999999
sg38
F0.080000000000000002
sg39
F-25.199999999999999
sg40
F1.05
sg41
F-9.4199999999999999
sg42
g24
(g26
S'\xc5\xfe\xb2{\xf2pC@'
tRp1006
sg44
Nsg45
Nsg47
F19.670000000000002
sg48
F0.5
sg49
F180.37
sg50
Nsg51
F20.309999999999999
sg52
NsbsS'Whiting 1'
p1007
g3
(g4
g5
NtRp1008
(dp1009
g8
F15.029999999999999
sg9
F-130.59999999999999
sg10
F0.55000000000000004
sg11
Nsg13
Nsg14
F7.9299999999999997
sg15
F30.100000000000001
sg16
F0.22
sg17
Nsg18
Nsg19
F0.25
sg20
Nsg21
Nsg22
g1007
sg23
g24
(g26
S'\xcd\xcc\xcc\xcc\xcc\xbc>@'
tRp1010
sg28
F-60.759999999999998
sg29
F17.489999999999998
sg30
Nsg31
Nsg32
(lp1011
F-13.9
aF4.7000000000000002
aF-26.300000000000001
asg34
F34.5
sg35
F-0.69999999999999996
sg36
F1
sg37
Nsg38
F0.029999999999999999
sg39
F-138.09999999999999
sg40
Nsg41
F-2.46
sg42
g24
(g26
S'/n\xa3\x01\xbc\x05\n\xc0'
tRp1012
sg44
Nsg45
Nsg47
Nsg48
F1.8
sg49
F161.22
sg50
Nsg51
F18.18
sg52
NsbsS'NGC 6229'
p1013
g3
(g4
g5
NtRp1014
(dp1015
g8
F9.3900000000000006
sg9
F-154.19999999999999
sg10
F1.5
sg11
S'F7'
p1016
sg13
F3.54
sg14
F9.1500000000000004
sg15
F30.5
sg16
F0.35999999999999999
sg17
F8.3000000000000007
sg18
F-0.029999999999999999
sg19
F0.12
sg20
F0.69999999999999996
sg21
Nsg22
g1013
sg23
g24
(g26
S'\xa4p=\n\xd7wo@'
tRp1017
sg28
F40.310000000000002
sg29
F17.449999999999999
sg30
Nsg31
Nsg32
(lp1018
F6.5
aF22.300000000000001
aF19.699999999999999
asg34
F29.800000000000001
sg35
F-1.47
sg36
F2
sg37
F0.050000000000000003
sg38
F0.01
sg39
F-138.40000000000001
sg40
F1.01
sg41
F-8.0600000000000005
sg42
g24
(g26
S'\x16jM\xf3\x8e\xc3G@'
tRp1019
sg44
Nsg45
Nsg47
F16.77
sg48
F7.5999999999999996
sg49
F73.640000000000001
sg50
Nsg51
F18.030000000000001
sg52
NsbsS'NGC 5986'
p1020
g3
(g4
g5
NtRp1021
(dp1022
g8
F7.5199999999999996
sg9
F88.900000000000006
sg10
F1.23
sg11
S'F5'
p1023
sg13
F3.4100000000000001
sg14
F9.1799999999999997
sg15
F10.4
sg16
F0.97999999999999998
sg17
F8.5800000000000001
sg18
F0.29999999999999999
sg19
F0.46999999999999997
sg20
F0.90000000000000002
sg21
Nsg22
g1020
sg23
g24
(g26
S'fffff\x90m@'
tRp1024
sg28
F13.27
sg29
F15.960000000000001
sg30
F0.57999999999999996
sg31
Nsg32
(lp1025
F9.3000000000000007
aF-4
aF2.3999999999999999
asg34
F4.7999999999999998
sg35
F-1.5900000000000001
sg36
F4
sg37
F0.059999999999999998
sg38
F0.28000000000000003
sg39
F92.900000000000006
sg40
F1.22
sg41
F-8.4399999999999995
sg42
g24
(g26
S'\x86\xc9T\xc1\xa8\xe4B\xc0'
tRp1026
sg44
Nsg45
Nsg47
F17.670000000000002
sg48
F3.7000000000000002
sg49
F337.01999999999998
sg50
Nsg51
F16.52
sg52
NsbsS'Rup 106'
p1027
g3
(g4
g5
NtRp1028
(dp1029
g8
F10.9
sg9
F-44
sg10
F0.69999999999999996
sg11
Nsg13
F1.1000000000000001
sg14
F9.3399999999999999
sg15
F21.199999999999999
sg16
F1.05
sg17
F9.4100000000000001
sg18
Nsg19
F1
sg20
Nsg21
Nsg22
g1027
sg23
g24
(g26
S'\x8f\xc2\xf5(\\\xb5g@'
tRp1030
sg28
F11.67
sg29
F17.25
sg30
Nsg31
Nsg32
(lp1031
F10.699999999999999
aF-17.800000000000001
aF4.2999999999999998
asg34
F18.5
sg35
F-1.6799999999999999
sg36
F6
sg37
Nsg38
F0.20000000000000001
sg39
F-49.700000000000003
sg40
Nsg41
F-6.3499999999999996
sg42
g24
(g26
S'^K\xc8\x07=\x93I\xc0'
tRp1032
sg44
Nsg45
Nsg47
F21.82
sg48
F3
sg49
F300.88
sg50
Nsg51
F17.800000000000001
sg52
NsbsS'NGC 6749'
p1033
g3
(g4
g5
NtRp1034
(dp1035
g8
F12.44
sg9
F-61.700000000000003
sg10
F0.79000000000000004
sg11
Nsg13
F3.2999999999999998
sg14
F8.7799999999999994
sg15
F7.9000000000000004
sg16
F1.1000000000000001
sg17
F8.5899999999999999
sg18
F0.80000000000000004
sg19
F0.62
sg20
F2.1400000000000001
sg21
Nsg22
g1033
sg23
g24
(g26
S'\x15\x8cJ\xea\x04\xe5q@'
tRp1036
sg28
F-2.21
sg29
F19.140000000000001
sg30
Nsg31
Nsg32
(lp1037
F6.4000000000000004
aF4.7000000000000002
aF-0.29999999999999999
asg34
F5
sg35
F-1.6000000000000001
sg36
F1
sg37
Nsg38
F1.5
sg39
F-47.200000000000003
sg40
Nsg41
F-6.7000000000000002
sg42
g24
(g26
S'\xef\xc9\xc3B\xadi\xfe?'
tRp1038
sg44
Nsg45
Nsg47
F21.879999999999999
sg48
F2.8999999999999999
sg49
F36.200000000000003
sg50
Nsg51
F19.699999999999999
sg52
NsbsS'NGC 6624'
p1039
g3
(g4
g5
NtRp1040
(dp1041
g8
F7.8700000000000001
sg9
F53.899999999999999
sg10
F2.5
sg11
S'G4'
p1042
sg13
F5.2999999999999998
sg14
F8.7100000000000009
sg15
F7.9000000000000004
sg16
F0.81999999999999995
sg17
F6.6100000000000003
sg18
F0.59999999999999998
sg19
Nsg20
F1.1100000000000001
sg21
F5.4000000000000004
sg22
g1039
sg23
g24
(g26
S'\t\xf9\xa0g\xb3>q@'
tRp1043
sg28
F-7.9100000000000001
sg29
F15.359999999999999
sg30
F0.67000000000000004
sg31
F0.5
sg32
(lp1044
F7.7999999999999998
aF0.40000000000000002
aF-1.1000000000000001
asg34
F1.2
sg35
F-0.44
sg36
F4
sg37
Nsg38
F0.28000000000000003
sg39
F62.100000000000001
sg40
F1.4199999999999999
sg41
F-7.4900000000000002
sg42
g24
(g26
S'#\xdb\xf9~j\\>\xc0'
tRp1045
sg44
Nsg45
Nsg47
F15.32
sg48
F0.59999999999999998
sg49
F2.79
sg50
Nsg51
F16.09
sg52
NsbsS'NGC 6642'
p1046
g3
(g4
g5
NtRp1047
(dp1048
g8
F9.1300000000000008
sg9
F-57.200000000000003
sg10
F1.99
sg11
S'F8'
p1049
sg13
F4.6399999999999997
sg14
F8.5199999999999996
sg15
F8.0999999999999996
sg16
F0.72999999999999998
sg17
F6.9500000000000002
sg18
F0.56999999999999995
sg19
Nsg20
F1.1100000000000001
sg21
Nsg22
g1046
sg23
g24
(g26
S'K\xc8\x07=\x9b_q@'
tRp1050
sg28
F-6.4400000000000004
sg29
F15.789999999999999
sg30
F0.71999999999999997
sg31
Nsg32
(lp1051
F8
aF1.3999999999999999
aF-0.90000000000000002
asg34
F1.7
sg35
F-1.26
sg36
F5
sg37
F0.029999999999999999
sg38
F0.40000000000000002
sg39
F-47.299999999999997
sg40
F1.45
sg41
F-6.6600000000000001
sg42
g24
(g26
S'(\x0f\x0b\xb5\xa6y7\xc0'
tRp1052
sg44
Nsg45
Nsg47
F16.82
sg48
F5.4000000000000004
sg49
F9.8100000000000005
sg50
Nsg51
F16.399999999999999
sg52
NsbsS'BH 261'
p1053
g3
(g4
g5
NtRp1054
(dp1055
g8
F11
sg9
Nsg10
F1
sg11
Nsg13
Nsg14
F7.7999999999999998
sg15
F6.5
sg16
F0.55000000000000004
sg17
Nsg18
Nsg19
F0.40000000000000002
sg20
Nsg21
Nsg22
g1053
sg23
g24
(g26
S'=\n\xd7\xa3p\x18q@'
tRp1056
sg28
F-5.2699999999999996
sg29
F15.19
sg30
Nsg31
Nsg32
(lp1057
F6.5
aF0.40000000000000002
aF-0.59999999999999998
asg34
F1.7
sg35
F-1.3
sg36
F1
sg37
F0.029999999999999999
sg38
F0.35999999999999999
sg39
Nsg40
Nsg41
F-4.1900000000000004
sg42
g24
(g26
S'\xc3\xf5(\\\x8f\xa2<\xc0'
tRp1058
sg44
Nsg45
S'AL 3'
p1059
sg47
Nsg48
Nsg49
F3.3599999999999999
sg50
Nsg51
F15.800000000000001
sg52
NsbsS'NGC 6723'
p1060
g3
(g4
g5
NtRp1061
(dp1062
g8
F7.0099999999999998
sg9
F-94.5
sg10
F1.1100000000000001
sg11
S'F9'
p1063
sg13
F2.79
sg14
F9.2400000000000002
sg15
F8.6999999999999993
sg16
F1.53
sg17
F8.7899999999999991
sg18
F0.20999999999999999
sg19
Nsg20
F0.75
sg21
Nsg22
g1060
sg23
g24
(g26
S'>yX\xa85\xceq@'
tRp1064
sg28
F-17.300000000000001
sg29
F14.84
sg30
F0.5
sg31
Nsg32
(lp1065
F8.3000000000000007
aF0
aF-2.6000000000000001
asg34
F2.6000000000000001
sg35
F-1.1000000000000001
sg36
F3
sg37
F0
sg38
F0.050000000000000003
sg39
F-88.299999999999997
sg40
F1.05
sg41
F-7.8300000000000001
sg42
g24
(g26
S'\xfeC\xfa\xed\xebPB\xc0'
tRp1066
sg44
Nsg45
Nsg47
F18.129999999999999
sg48
F3.6000000000000001
sg49
F0.070000000000000007
sg50
Nsg51
F15.48
sg52
NsbsS'NGC 6235'
p1067
g3
(g4
g5
NtRp1068
(dp1069
g8
F9.9700000000000006
sg9
F87.299999999999997
sg10
F1.53
sg11
S'F9'
p1070
sg13
F2.9700000000000002
sg14
F8.8900000000000006
sg15
F11.5
sg16
F1
sg17
F8.0800000000000001
sg18
F0.44
sg19
F0.33000000000000002
sg20
F1.05
sg21
Nsg22
g1067
sg23
g24
(g26
S'L7\x89A`\xabo@'
tRp1071
sg28
F13.52
sg29
F16.260000000000002
sg30
F0.66000000000000003
sg31
Nsg32
(lp1072
F11.199999999999999
aF-0.20000000000000001
aF2.7000000000000002
asg34
F4.2000000000000002
sg35
F-1.28
sg36
F4
sg37
F0.13
sg38
F0.31
sg39
F96.799999999999997
sg40
F1.3600000000000001
sg41
F-6.29
sg42
g24
(g26
S'vO\x1e\x16j-6\xc0'
tRp1073
sg44
Nsg45
Nsg47
F19.120000000000001
sg48
F3.3999999999999999
sg49
F358.92000000000002
sg50
Nsg51
F16.870000000000001
sg52
NsbsS'NGC 6121'
p1074
g3
(g4
g5
NtRp1075
(dp1076
g8
F5.6299999999999999
sg9
F70.700000000000003
sg10
F1.6499999999999999
sg11
S'F8'
p1077
sg13
F3.6400000000000001
sg14
F8.9299999999999997
sg15
F2.2000000000000002
sg16
F4.3300000000000001
sg17
F7.9000000000000004
sg18
F0.42999999999999999
sg19
F1.1599999999999999
sg20
F1.03
sg21
F4
sg22
g1074
sg23
g24
(g26
S'\xb1\xe1\xe9\x95\xb2\xbcn@'
tRp1078
sg28
F15.970000000000001
sg29
F12.82
sg30
F0.68999999999999995
sg31
F0.20000000000000001
sg32
(lp1079
F2.1000000000000001
aF-0.29999999999999999
aF0.59999999999999998
asg34
F5.9000000000000004
sg35
F-1.1599999999999999
sg36
F11
sg37
F0
sg38
F0.34999999999999998
sg39
F78.599999999999994
sg40
F1.4199999999999999
sg41
F-7.1900000000000004
sg42
g24
(g26
S'\x9f<,\xd4\x9a\x86:\xc0'
tRp1080
sg44
Nsg45
S'M 4'
p1081
sg47
F17.949999999999999
sg48
F0.20000000000000001
sg49
F350.97000000000003
sg50
Nsg51
F13.449999999999999
sg52
NsbsS'NGC 5024'
p1082
g3
(g4
g5
NtRp1083
(dp1084
g8
F7.6100000000000003
sg9
F-62.899999999999999
sg10
F1.72
sg11
S'F6'
p1085
sg13
F3.0699999999999998
sg14
F9.7599999999999998
sg15
F17.899999999999999
sg16
F1.3100000000000001
sg17
F8.7300000000000004
sg18
F0.089999999999999997
sg19
F0.34999999999999998
sg20
F0.64000000000000001
sg21
F4.4000000000000004
sg22
g1082
sg23
g24
(g26
S'A\xf1c\xcc]\xc7h@'
tRp1086
sg28
F79.760000000000005
sg29
F16.32
sg30
F0.45000000000000001
sg31
F0.90000000000000002
sg32
(lp1087
F2.7999999999999998
aF-1.3999999999999999
aF17.600000000000001
asg34
F18.399999999999999
sg35
F-2.1000000000000001
sg36
F2
sg37
F0.01
sg38
F0.02
sg39
F-56.200000000000003
sg40
F0.85999999999999999
sg41
F-8.7100000000000009
sg42
g24
(g26
S"\xec/\xbb'\x0f+2@"
tRp1088
sg44
Nsg45
S'M 53'
p1089
sg47
F17.379999999999999
sg48
F0.29999999999999999
sg49
F332.95999999999998
sg50
Nsg51
F16.809999999999999
sg52
NsbsS'NGC 6333'
p1090
g3
(g4
g5
NtRp1091
(dp1092
g8
F7.7199999999999998
sg9
F229.09999999999999
sg10
F1.25
sg11
S'F5'
p1093
sg13
F3.7799999999999998
sg14
F8.9000000000000004
sg15
F7.9000000000000004
sg16
F0.95999999999999996
sg17
F8.3599999999999994
sg18
F0.32000000000000001
sg19
F0.45000000000000001
sg20
F0.96999999999999997
sg21
Nsg22
g1090
sg23
g24
(g26
S'\xeb\xe26\x1a\xc0<p@'
tRp1094
sg28
F10.710000000000001
sg29
F15.67
sg30
F0.63
sg31
Nsg32
(lp1095
F7.7000000000000002
aF0.69999999999999996
aF1.5
asg34
F1.7
sg35
F-1.77
sg36
F2
sg37
Nsg38
F0.38
sg39
F239.80000000000001
sg40
F1.3300000000000001
sg41
F-7.9500000000000002
sg42
g24
(g26
S'\xa3\x01\xbc\x05\x12\x842\xc0'
tRp1096
sg44
Nsg45
S'M 9'
p1097
sg47
F17.390000000000001
sg48
F7
sg49
F5.54
sg50
Nsg51
F16.199999999999999
sg52
NsbsS'NGC 5634'
p1098
g3
(g4
g5
NtRp1099
(dp1100
g8
F9.4700000000000006
sg9
F-45.100000000000001
sg10
F2.0699999999999998
sg11
S'F3'
p1101
sg13
F3.6299999999999999
sg14
F9.5399999999999991
sg15
F25.199999999999999
sg16
F0.85999999999999999
sg17
F7.6699999999999999
sg18
F0.089999999999999997
sg19
F0.089999999999999997
sg20
F0.67000000000000004
sg21
Nsg22
g1098
sg23
g24
(g26
S'\x82sF\x94\xf6,k@'
tRp1102
sg28
F49.259999999999998
sg29
F17.16
sg30
F0.44
sg31
Nsg32
(lp1103
F15.699999999999999
aF-5
aF19.100000000000001
asg34
F21.199999999999999
sg35
F-1.8799999999999999
sg36
F2
sg37
Nsg38
F0.050000000000000003
sg39
F-37.5
sg40
F0.95999999999999996
sg41
F-7.6900000000000004
sg42
g24
(g26
S'\xf2A\xcff\xd5\xe7\x17\xc0'
tRp1104
sg44
Nsg45
Nsg47
F17.199999999999999
sg48
F6.5999999999999996
sg49
F342.20999999999998
sg50
Nsg51
F17.68
sg52
NsbsS'NGC 6535'
p1105
g3
(g4
g5
NtRp1106
(dp1107
g8
F10.470000000000001
sg9
F-215.09999999999999
sg10
F1.3300000000000001
sg11
S'G0'
p1108
sg13
F2.3399999999999999
sg14
F8.1999999999999993
sg15
F6.7999999999999998
sg16
F0.84999999999999998
sg17
F7.2800000000000002
sg18
F0.28999999999999998
sg19
F0.35999999999999999
sg20
F0.93999999999999995
sg21
F2.3999999999999999
sg22
g1105
sg23
g24
(g26
S'\xee|?5^\xefp@'
tRp1109
sg28
F10.44
sg29
F15.220000000000001
sg30
Nsg31
F0.5
sg32
(lp1110
F6
aF3.1000000000000001
aF1.2
asg34
F3.8999999999999999
sg35
F-1.79
sg36
F3
sg37
F0.080000000000000002
sg38
F0.34000000000000002
sg39
F-200.40000000000001
sg40
Nsg41
F-4.75
sg42
g24
(g26
S'\xce\x88\xd2\xde\xe0\x0b\xd3\xbf'
tRp1111
sg44
Nsg45
Nsg47
F21.260000000000002
sg48
F0.5
sg49
F27.18
sg50
Nsg51
F15.75
sg52
NsbsS'NGC 4590'
p1112
g3
(g4
g5
NtRp1113
(dp1114
g8
F7.8399999999999999
sg9
F-94.700000000000003
sg10
F1.4099999999999999
sg11
S'F2'
p1115
sg13
F2.5699999999999998
sg14
F9.2699999999999996
sg15
F10.300000000000001
sg16
F1.51
sg17
F8.4499999999999993
sg18
F0.040000000000000001
sg19
F0.57999999999999996
sg20
F0.63
sg21
F2.5
sg22
g1112
sg23
g24
(g26
S'\xd6V\xec/\xbb\xbbg@'
tRp1116
sg28
F36.049999999999997
sg29
F15.210000000000001
sg30
F0.46000000000000002
sg31
F0.40000000000000002
sg32
(lp1117
F4.0999999999999996
aF-7.2000000000000002
aF6
asg34
F10.199999999999999
sg35
F-2.23
sg36
F5
sg37
Nsg38
F0.050000000000000003
sg39
F-96.799999999999997
sg40
F0.93999999999999995
sg41
F-7.3700000000000001
sg42
g24
(g26
S'\x1f\xf4lV}\xbe:\xc0'
tRp1118
sg44
Nsg45
S'M 68'
p1119
sg47
F18.809999999999999
sg48
F0.20000000000000001
sg49
F299.63
sg50
Nsg51
F15.68
sg52
NsbsS'E 3'
p1120
g3
(g4
g5
NtRp1121
(dp1122
g8
F11.35
sg9
Nsg10
F0.75
sg11
Nsg13
F0.83999999999999997
sg14
F8.8000000000000007
sg15
F8.0999999999999996
sg16
F2.1000000000000001
sg17
F8.9299999999999997
sg18
Nsg19
F1.8700000000000001
sg20
Nsg21
Nsg22
g1120
sg23
g24
(g26
S'\xa4\xdf\xbe\x0e\x9c\x87a@'
tRp1123
sg28
F-19.02
sg29
F15.470000000000001
sg30
Nsg31
Nsg32
(lp1124
F2.8999999999999999
aF-7.0999999999999996
aF-2.6000000000000001
asg34
F9.0999999999999996
sg35
F-0.82999999999999996
sg36
F1
sg37
Nsg38
F0.29999999999999999
sg39
Nsg40
Nsg41
F-4.1200000000000001
sg42
g24
(g26
S'\x83/L\xa6\nRS\xc0'
tRp1125
sg44
Nsg45
Nsg47
F23.100000000000001
sg48
Nsg49
F292.26999999999998
sg50
Nsg51
F16.149999999999999
sg52
NsbsS'NGC 6539'
p1126
g3
(g4
g5
NtRp1127
(dp1128
g8
F9.3300000000000001
sg9
F31
sg10
F1.74
sg11
S'G4'
p1129
sg13
F4.1500000000000004
sg14
F9.3200000000000003
sg15
F7.7999999999999998
sg16
F1.7
sg17
F8.3100000000000005
sg18
F1.01
sg19
F0.38
sg20
F1.8300000000000001
sg21
Nsg22
g1126
sg23
g24
(g26
S'Zd;\xdfO\xf3p@'
tRp1130
sg28
F6.7800000000000002
sg29
F17.620000000000001
sg30
Nsg31
Nsg32
(lp1131
F7.2000000000000002
aF2.7999999999999998
aF0.90000000000000002
asg34
F3
sg35
F-0.63
sg36
F5
sg37
F0.080000000000000002
sg38
F1.02
sg39
F44.399999999999999
sg40
F2.23
sg41
F-8.2899999999999991
sg42
g24
(g26
S'\xd5\xe7j+\xf6W\x1e\xc0'
tRp1132
sg44
Nsg45
Nsg47
F18.579999999999998
sg48
F1.7
sg49
F20.800000000000001
sg50
Nsg51
F18.329999999999998
sg52
Nsbs.